
smart_home_F030.elf:     file format elf32-littlearm

Sections:
Idx Name          Size      VMA       LMA       File off  Algn
  0 .isr_vector   000000c0  08000000  08000000  00010000  2**0
                  CONTENTS, ALLOC, LOAD, READONLY, DATA
  1 .text         00001c00  080000c0  080000c0  000100c0  2**2
                  CONTENTS, ALLOC, LOAD, READONLY, CODE
  2 .rodata       00000050  08001cc0  08001cc0  00011cc0  2**1
                  CONTENTS, ALLOC, LOAD, READONLY, DATA
  3 .ARM.extab    00000000  08001d10  08001d10  0002002c  2**0
                  CONTENTS
  4 .ARM          00000000  08001d10  08001d10  0002002c  2**0
                  CONTENTS
  5 .preinit_array 00000000  08001d10  08001d10  0002002c  2**0
                  CONTENTS, ALLOC, LOAD, DATA
  6 .init_array   00000004  08001d10  08001d10  00011d10  2**2
                  CONTENTS, ALLOC, LOAD, DATA
  7 .fini_array   00000004  08001d14  08001d14  00011d14  2**2
                  CONTENTS, ALLOC, LOAD, DATA
  8 .data         0000002c  20000000  08001d18  00020000  2**2
                  CONTENTS, ALLOC, LOAD, DATA
  9 .bss          00000090  2000002c  08001d44  0002002c  2**2
                  ALLOC
 10 ._user_heap_stack 00000604  200000bc  08001d44  000200bc  2**0
                  ALLOC
 11 .ARM.attributes 00000028  00000000  00000000  0002002c  2**0
                  CONTENTS, READONLY
 12 .comment      0000007b  00000000  00000000  00020054  2**0
                  CONTENTS, READONLY
 13 .debug_frame  00000094  00000000  00000000  000200d0  2**2
                  CONTENTS, READONLY, DEBUGGING

Disassembly of section .text:

080000c0 <__do_global_dtors_aux>:
 80000c0:	b510      	push	{r4, lr}
 80000c2:	4c06      	ldr	r4, [pc, #24]	; (80000dc <__do_global_dtors_aux+0x1c>)
 80000c4:	7823      	ldrb	r3, [r4, #0]
 80000c6:	2b00      	cmp	r3, #0
 80000c8:	d107      	bne.n	80000da <__do_global_dtors_aux+0x1a>
 80000ca:	4b05      	ldr	r3, [pc, #20]	; (80000e0 <__do_global_dtors_aux+0x20>)
 80000cc:	2b00      	cmp	r3, #0
 80000ce:	d002      	beq.n	80000d6 <__do_global_dtors_aux+0x16>
 80000d0:	4804      	ldr	r0, [pc, #16]	; (80000e4 <__do_global_dtors_aux+0x24>)
 80000d2:	e000      	b.n	80000d6 <__do_global_dtors_aux+0x16>
 80000d4:	bf00      	nop
 80000d6:	2301      	movs	r3, #1
 80000d8:	7023      	strb	r3, [r4, #0]
 80000da:	bd10      	pop	{r4, pc}
 80000dc:	2000002c 	.word	0x2000002c
 80000e0:	00000000 	.word	0x00000000
 80000e4:	08001ca8 	.word	0x08001ca8

080000e8 <frame_dummy>:
 80000e8:	4b04      	ldr	r3, [pc, #16]	; (80000fc <frame_dummy+0x14>)
 80000ea:	b510      	push	{r4, lr}
 80000ec:	2b00      	cmp	r3, #0
 80000ee:	d003      	beq.n	80000f8 <frame_dummy+0x10>
 80000f0:	4903      	ldr	r1, [pc, #12]	; (8000100 <frame_dummy+0x18>)
 80000f2:	4804      	ldr	r0, [pc, #16]	; (8000104 <frame_dummy+0x1c>)
 80000f4:	e000      	b.n	80000f8 <frame_dummy+0x10>
 80000f6:	bf00      	nop
 80000f8:	bd10      	pop	{r4, pc}
 80000fa:	46c0      	nop			; (mov r8, r8)
 80000fc:	00000000 	.word	0x00000000
 8000100:	20000030 	.word	0x20000030
 8000104:	08001ca8 	.word	0x08001ca8

08000108 <__udivsi3>:
 8000108:	2200      	movs	r2, #0
 800010a:	0843      	lsrs	r3, r0, #1
 800010c:	428b      	cmp	r3, r1
 800010e:	d374      	bcc.n	80001fa <__udivsi3+0xf2>
 8000110:	0903      	lsrs	r3, r0, #4
 8000112:	428b      	cmp	r3, r1
 8000114:	d35f      	bcc.n	80001d6 <__udivsi3+0xce>
 8000116:	0a03      	lsrs	r3, r0, #8
 8000118:	428b      	cmp	r3, r1
 800011a:	d344      	bcc.n	80001a6 <__udivsi3+0x9e>
 800011c:	0b03      	lsrs	r3, r0, #12
 800011e:	428b      	cmp	r3, r1
 8000120:	d328      	bcc.n	8000174 <__udivsi3+0x6c>
 8000122:	0c03      	lsrs	r3, r0, #16
 8000124:	428b      	cmp	r3, r1
 8000126:	d30d      	bcc.n	8000144 <__udivsi3+0x3c>
 8000128:	22ff      	movs	r2, #255	; 0xff
 800012a:	0209      	lsls	r1, r1, #8
 800012c:	ba12      	rev	r2, r2
 800012e:	0c03      	lsrs	r3, r0, #16
 8000130:	428b      	cmp	r3, r1
 8000132:	d302      	bcc.n	800013a <__udivsi3+0x32>
 8000134:	1212      	asrs	r2, r2, #8
 8000136:	0209      	lsls	r1, r1, #8
 8000138:	d065      	beq.n	8000206 <__udivsi3+0xfe>
 800013a:	0b03      	lsrs	r3, r0, #12
 800013c:	428b      	cmp	r3, r1
 800013e:	d319      	bcc.n	8000174 <__udivsi3+0x6c>
 8000140:	e000      	b.n	8000144 <__udivsi3+0x3c>
 8000142:	0a09      	lsrs	r1, r1, #8
 8000144:	0bc3      	lsrs	r3, r0, #15
 8000146:	428b      	cmp	r3, r1
 8000148:	d301      	bcc.n	800014e <__udivsi3+0x46>
 800014a:	03cb      	lsls	r3, r1, #15
 800014c:	1ac0      	subs	r0, r0, r3
 800014e:	4152      	adcs	r2, r2
 8000150:	0b83      	lsrs	r3, r0, #14
 8000152:	428b      	cmp	r3, r1
 8000154:	d301      	bcc.n	800015a <__udivsi3+0x52>
 8000156:	038b      	lsls	r3, r1, #14
 8000158:	1ac0      	subs	r0, r0, r3
 800015a:	4152      	adcs	r2, r2
 800015c:	0b43      	lsrs	r3, r0, #13
 800015e:	428b      	cmp	r3, r1
 8000160:	d301      	bcc.n	8000166 <__udivsi3+0x5e>
 8000162:	034b      	lsls	r3, r1, #13
 8000164:	1ac0      	subs	r0, r0, r3
 8000166:	4152      	adcs	r2, r2
 8000168:	0b03      	lsrs	r3, r0, #12
 800016a:	428b      	cmp	r3, r1
 800016c:	d301      	bcc.n	8000172 <__udivsi3+0x6a>
 800016e:	030b      	lsls	r3, r1, #12
 8000170:	1ac0      	subs	r0, r0, r3
 8000172:	4152      	adcs	r2, r2
 8000174:	0ac3      	lsrs	r3, r0, #11
 8000176:	428b      	cmp	r3, r1
 8000178:	d301      	bcc.n	800017e <__udivsi3+0x76>
 800017a:	02cb      	lsls	r3, r1, #11
 800017c:	1ac0      	subs	r0, r0, r3
 800017e:	4152      	adcs	r2, r2
 8000180:	0a83      	lsrs	r3, r0, #10
 8000182:	428b      	cmp	r3, r1
 8000184:	d301      	bcc.n	800018a <__udivsi3+0x82>
 8000186:	028b      	lsls	r3, r1, #10
 8000188:	1ac0      	subs	r0, r0, r3
 800018a:	4152      	adcs	r2, r2
 800018c:	0a43      	lsrs	r3, r0, #9
 800018e:	428b      	cmp	r3, r1
 8000190:	d301      	bcc.n	8000196 <__udivsi3+0x8e>
 8000192:	024b      	lsls	r3, r1, #9
 8000194:	1ac0      	subs	r0, r0, r3
 8000196:	4152      	adcs	r2, r2
 8000198:	0a03      	lsrs	r3, r0, #8
 800019a:	428b      	cmp	r3, r1
 800019c:	d301      	bcc.n	80001a2 <__udivsi3+0x9a>
 800019e:	020b      	lsls	r3, r1, #8
 80001a0:	1ac0      	subs	r0, r0, r3
 80001a2:	4152      	adcs	r2, r2
 80001a4:	d2cd      	bcs.n	8000142 <__udivsi3+0x3a>
 80001a6:	09c3      	lsrs	r3, r0, #7
 80001a8:	428b      	cmp	r3, r1
 80001aa:	d301      	bcc.n	80001b0 <__udivsi3+0xa8>
 80001ac:	01cb      	lsls	r3, r1, #7
 80001ae:	1ac0      	subs	r0, r0, r3
 80001b0:	4152      	adcs	r2, r2
 80001b2:	0983      	lsrs	r3, r0, #6
 80001b4:	428b      	cmp	r3, r1
 80001b6:	d301      	bcc.n	80001bc <__udivsi3+0xb4>
 80001b8:	018b      	lsls	r3, r1, #6
 80001ba:	1ac0      	subs	r0, r0, r3
 80001bc:	4152      	adcs	r2, r2
 80001be:	0943      	lsrs	r3, r0, #5
 80001c0:	428b      	cmp	r3, r1
 80001c2:	d301      	bcc.n	80001c8 <__udivsi3+0xc0>
 80001c4:	014b      	lsls	r3, r1, #5
 80001c6:	1ac0      	subs	r0, r0, r3
 80001c8:	4152      	adcs	r2, r2
 80001ca:	0903      	lsrs	r3, r0, #4
 80001cc:	428b      	cmp	r3, r1
 80001ce:	d301      	bcc.n	80001d4 <__udivsi3+0xcc>
 80001d0:	010b      	lsls	r3, r1, #4
 80001d2:	1ac0      	subs	r0, r0, r3
 80001d4:	4152      	adcs	r2, r2
 80001d6:	08c3      	lsrs	r3, r0, #3
 80001d8:	428b      	cmp	r3, r1
 80001da:	d301      	bcc.n	80001e0 <__udivsi3+0xd8>
 80001dc:	00cb      	lsls	r3, r1, #3
 80001de:	1ac0      	subs	r0, r0, r3
 80001e0:	4152      	adcs	r2, r2
 80001e2:	0883      	lsrs	r3, r0, #2
 80001e4:	428b      	cmp	r3, r1
 80001e6:	d301      	bcc.n	80001ec <__udivsi3+0xe4>
 80001e8:	008b      	lsls	r3, r1, #2
 80001ea:	1ac0      	subs	r0, r0, r3
 80001ec:	4152      	adcs	r2, r2
 80001ee:	0843      	lsrs	r3, r0, #1
 80001f0:	428b      	cmp	r3, r1
 80001f2:	d301      	bcc.n	80001f8 <__udivsi3+0xf0>
 80001f4:	004b      	lsls	r3, r1, #1
 80001f6:	1ac0      	subs	r0, r0, r3
 80001f8:	4152      	adcs	r2, r2
 80001fa:	1a41      	subs	r1, r0, r1
 80001fc:	d200      	bcs.n	8000200 <__udivsi3+0xf8>
 80001fe:	4601      	mov	r1, r0
 8000200:	4152      	adcs	r2, r2
 8000202:	4610      	mov	r0, r2
 8000204:	4770      	bx	lr
 8000206:	e7ff      	b.n	8000208 <__udivsi3+0x100>
 8000208:	b501      	push	{r0, lr}
 800020a:	2000      	movs	r0, #0
 800020c:	f000 f806 	bl	800021c <__aeabi_idiv0>
 8000210:	bd02      	pop	{r1, pc}
 8000212:	46c0      	nop			; (mov r8, r8)

08000214 <__aeabi_uidivmod>:
 8000214:	2900      	cmp	r1, #0
 8000216:	d0f7      	beq.n	8000208 <__udivsi3+0x100>
 8000218:	e776      	b.n	8000108 <__udivsi3>
 800021a:	4770      	bx	lr

0800021c <__aeabi_idiv0>:
 800021c:	4770      	bx	lr
 800021e:	46c0      	nop			; (mov r8, r8)

08000220 <setupOutputs>:
 8000220:	b570      	push	{r4, r5, r6, lr}
 8000222:	0004      	movs	r4, r0
 8000224:	2500      	movs	r5, #0
 8000226:	4b08      	ldr	r3, [pc, #32]	; (8000248 <setupOutputs+0x28>)
 8000228:	70d8      	strb	r0, [r3, #3]
 800022a:	4b08      	ldr	r3, [pc, #32]	; (800024c <setupOutputs+0x2c>)
 800022c:	0069      	lsls	r1, r5, #1
 800022e:	5ac9      	ldrh	r1, [r1, r3]
 8000230:	4b07      	ldr	r3, [pc, #28]	; (8000250 <setupOutputs+0x30>)
 8000232:	00a8      	lsls	r0, r5, #2
 8000234:	09e2      	lsrs	r2, r4, #7
 8000236:	58c0      	ldr	r0, [r0, r3]
 8000238:	0064      	lsls	r4, r4, #1
 800023a:	3501      	adds	r5, #1
 800023c:	f000 fe5e 	bl	8000efc <HAL_GPIO_WritePin>
 8000240:	b2e4      	uxtb	r4, r4
 8000242:	2d07      	cmp	r5, #7
 8000244:	d1f1      	bne.n	800022a <setupOutputs+0xa>
 8000246:	bd70      	pop	{r4, r5, r6, pc}
 8000248:	2000001c 	.word	0x2000001c
 800024c:	08001ce0 	.word	0x08001ce0
 8000250:	20000000 	.word	0x20000000

08000254 <SystemClock_Config>:
 8000254:	b510      	push	{r4, lr}
 8000256:	2410      	movs	r4, #16
 8000258:	b090      	sub	sp, #64	; 0x40
 800025a:	222c      	movs	r2, #44	; 0x2c
 800025c:	2100      	movs	r1, #0
 800025e:	a805      	add	r0, sp, #20
 8000260:	f001 fd19 	bl	8001c96 <memset>
 8000264:	2100      	movs	r1, #0
 8000266:	0022      	movs	r2, r4
 8000268:	4668      	mov	r0, sp
 800026a:	f001 fd14 	bl	8001c96 <memset>
 800026e:	2302      	movs	r3, #2
 8000270:	a804      	add	r0, sp, #16
 8000272:	9304      	str	r3, [sp, #16]
 8000274:	3b01      	subs	r3, #1
 8000276:	9307      	str	r3, [sp, #28]
 8000278:	9408      	str	r4, [sp, #32]
 800027a:	f000 fe45 	bl	8000f08 <HAL_RCC_OscConfig>
 800027e:	1e01      	subs	r1, r0, #0
 8000280:	d001      	beq.n	8000286 <SystemClock_Config+0x32>
 8000282:	b672      	cpsid	i
 8000284:	e7fe      	b.n	8000284 <SystemClock_Config+0x30>
 8000286:	2307      	movs	r3, #7
 8000288:	9001      	str	r0, [sp, #4]
 800028a:	9002      	str	r0, [sp, #8]
 800028c:	9003      	str	r0, [sp, #12]
 800028e:	4668      	mov	r0, sp
 8000290:	9300      	str	r3, [sp, #0]
 8000292:	f001 f86d 	bl	8001370 <HAL_RCC_ClockConfig>
 8000296:	2800      	cmp	r0, #0
 8000298:	d001      	beq.n	800029e <SystemClock_Config+0x4a>
 800029a:	b672      	cpsid	i
 800029c:	e7fe      	b.n	800029c <SystemClock_Config+0x48>
 800029e:	b010      	add	sp, #64	; 0x40
 80002a0:	bd10      	pop	{r4, pc}
	...

080002a4 <main>:
 80002a4:	b5f0      	push	{r4, r5, r6, r7, lr}
 80002a6:	b08d      	sub	sp, #52	; 0x34
 80002a8:	ac04      	add	r4, sp, #16
 80002aa:	f000 fcfb 	bl	8000ca4 <HAL_Init>
 80002ae:	f7ff ffd1 	bl	8000254 <SystemClock_Config>
 80002b2:	2214      	movs	r2, #20
 80002b4:	2100      	movs	r1, #0
 80002b6:	0020      	movs	r0, r4
 80002b8:	f001 fced 	bl	8001c96 <memset>
 80002bc:	2080      	movs	r0, #128	; 0x80
 80002be:	4b65      	ldr	r3, [pc, #404]	; (8000454 <main+0x1b0>)
 80002c0:	03c0      	lsls	r0, r0, #15
 80002c2:	6959      	ldr	r1, [r3, #20]
 80002c4:	2500      	movs	r5, #0
 80002c6:	4301      	orrs	r1, r0
 80002c8:	6159      	str	r1, [r3, #20]
 80002ca:	695a      	ldr	r2, [r3, #20]
 80002cc:	2601      	movs	r6, #1
 80002ce:	4002      	ands	r2, r0
 80002d0:	2080      	movs	r0, #128	; 0x80
 80002d2:	9201      	str	r2, [sp, #4]
 80002d4:	9a01      	ldr	r2, [sp, #4]
 80002d6:	6959      	ldr	r1, [r3, #20]
 80002d8:	0280      	lsls	r0, r0, #10
 80002da:	4301      	orrs	r1, r0
 80002dc:	6159      	str	r1, [r3, #20]
 80002de:	2180      	movs	r1, #128	; 0x80
 80002e0:	695a      	ldr	r2, [r3, #20]
 80002e2:	02c9      	lsls	r1, r1, #11
 80002e4:	4002      	ands	r2, r0
 80002e6:	9202      	str	r2, [sp, #8]
 80002e8:	9a02      	ldr	r2, [sp, #8]
 80002ea:	695a      	ldr	r2, [r3, #20]
 80002ec:	485a      	ldr	r0, [pc, #360]	; (8000458 <main+0x1b4>)
 80002ee:	430a      	orrs	r2, r1
 80002f0:	615a      	str	r2, [r3, #20]
 80002f2:	695b      	ldr	r3, [r3, #20]
 80002f4:	2200      	movs	r2, #0
 80002f6:	400b      	ands	r3, r1
 80002f8:	9303      	str	r3, [sp, #12]
 80002fa:	2103      	movs	r1, #3
 80002fc:	9b03      	ldr	r3, [sp, #12]
 80002fe:	f000 fdfd 	bl	8000efc <HAL_GPIO_WritePin>
 8000302:	2090      	movs	r0, #144	; 0x90
 8000304:	2703      	movs	r7, #3
 8000306:	2200      	movs	r2, #0
 8000308:	4954      	ldr	r1, [pc, #336]	; (800045c <main+0x1b8>)
 800030a:	05c0      	lsls	r0, r0, #23
 800030c:	f000 fdf6 	bl	8000efc <HAL_GPIO_WritePin>
 8000310:	2200      	movs	r2, #0
 8000312:	2102      	movs	r1, #2
 8000314:	4852      	ldr	r0, [pc, #328]	; (8000460 <main+0x1bc>)
 8000316:	f000 fdf1 	bl	8000efc <HAL_GPIO_WritePin>
 800031a:	0021      	movs	r1, r4
 800031c:	484e      	ldr	r0, [pc, #312]	; (8000458 <main+0x1b4>)
 800031e:	60a5      	str	r5, [r4, #8]
 8000320:	60e5      	str	r5, [r4, #12]
 8000322:	9704      	str	r7, [sp, #16]
 8000324:	6066      	str	r6, [r4, #4]
 8000326:	f000 fd35 	bl	8000d94 <HAL_GPIO_Init>
 800032a:	2090      	movs	r0, #144	; 0x90
 800032c:	4b4b      	ldr	r3, [pc, #300]	; (800045c <main+0x1b8>)
 800032e:	0021      	movs	r1, r4
 8000330:	05c0      	lsls	r0, r0, #23
 8000332:	9304      	str	r3, [sp, #16]
 8000334:	60a5      	str	r5, [r4, #8]
 8000336:	60e5      	str	r5, [r4, #12]
 8000338:	6066      	str	r6, [r4, #4]
 800033a:	f000 fd2b 	bl	8000d94 <HAL_GPIO_Init>
 800033e:	2302      	movs	r3, #2
 8000340:	2090      	movs	r0, #144	; 0x90
 8000342:	9304      	str	r3, [sp, #16]
 8000344:	4b47      	ldr	r3, [pc, #284]	; (8000464 <main+0x1c0>)
 8000346:	0021      	movs	r1, r4
 8000348:	05c0      	lsls	r0, r0, #23
 800034a:	6063      	str	r3, [r4, #4]
 800034c:	60a5      	str	r5, [r4, #8]
 800034e:	f000 fd21 	bl	8000d94 <HAL_GPIO_Init>
 8000352:	2302      	movs	r3, #2
 8000354:	0021      	movs	r1, r4
 8000356:	4842      	ldr	r0, [pc, #264]	; (8000460 <main+0x1bc>)
 8000358:	9304      	str	r3, [sp, #16]
 800035a:	60a5      	str	r5, [r4, #8]
 800035c:	60e5      	str	r5, [r4, #12]
 800035e:	6066      	str	r6, [r4, #4]
 8000360:	f000 fd18 	bl	8000d94 <HAL_GPIO_Init>
 8000364:	4840      	ldr	r0, [pc, #256]	; (8000468 <main+0x1c4>)
 8000366:	4b41      	ldr	r3, [pc, #260]	; (800046c <main+0x1c8>)
 8000368:	6085      	str	r5, [r0, #8]
 800036a:	6003      	str	r3, [r0, #0]
 800036c:	2382      	movs	r3, #130	; 0x82
 800036e:	005b      	lsls	r3, r3, #1
 8000370:	6043      	str	r3, [r0, #4]
 8000372:	23e0      	movs	r3, #224	; 0xe0
 8000374:	00db      	lsls	r3, r3, #3
 8000376:	60c3      	str	r3, [r0, #12]
 8000378:	2380      	movs	r3, #128	; 0x80
 800037a:	009b      	lsls	r3, r3, #2
 800037c:	6183      	str	r3, [r0, #24]
 800037e:	3bfa      	subs	r3, #250	; 0xfa
 8000380:	3bff      	subs	r3, #255	; 0xff
 8000382:	62c3      	str	r3, [r0, #44]	; 0x2c
 8000384:	199b      	adds	r3, r3, r6
 8000386:	6105      	str	r5, [r0, #16]
 8000388:	6145      	str	r5, [r0, #20]
 800038a:	61c5      	str	r5, [r0, #28]
 800038c:	6205      	str	r5, [r0, #32]
 800038e:	6245      	str	r5, [r0, #36]	; 0x24
 8000390:	6285      	str	r5, [r0, #40]	; 0x28
 8000392:	6305      	str	r5, [r0, #48]	; 0x30
 8000394:	6343      	str	r3, [r0, #52]	; 0x34
 8000396:	f001 f95f 	bl	8001658 <HAL_SPI_Init>
 800039a:	1e05      	subs	r5, r0, #0
 800039c:	d001      	beq.n	80003a2 <main+0xfe>
 800039e:	b672      	cpsid	i
 80003a0:	e7fe      	b.n	80003a0 <main+0xfc>
 80003a2:	f000 f9ae 	bl	8000702 <isChipConnected>
 80003a6:	f000 fb7b 	bl	8000aa0 <NRF_Init>
 80003aa:	0038      	movs	r0, r7
 80003ac:	f000 fb42 	bl	8000a34 <setPALevel>
 80003b0:	0028      	movs	r0, r5
 80003b2:	f000 fb51 	bl	8000a58 <setDataRate>
 80003b6:	2005      	movs	r0, #5
 80003b8:	f000 faa8 	bl	800090c <setAddressWidth>
 80003bc:	f000 fb18 	bl	80009f0 <enableDynamicPayloads>
 80003c0:	0030      	movs	r0, r6
 80003c2:	f000 fb2f 	bl	8000a24 <setAutoAck>
 80003c6:	2067      	movs	r0, #103	; 0x67
 80003c8:	f000 f995 	bl	80006f6 <setChannel>
 80003cc:	21a8      	movs	r1, #168	; 0xa8
 80003ce:	4828      	ldr	r0, [pc, #160]	; (8000470 <main+0x1cc>)
 80003d0:	f000 fa4a 	bl	8000868 <openWritingPipe>
 80003d4:	0030      	movs	r0, r6
 80003d6:	23a8      	movs	r3, #168	; 0xa8
 80003d8:	4a26      	ldr	r2, [pc, #152]	; (8000474 <main+0x1d0>)
 80003da:	f000 fa5d 	bl	8000898 <openReadingPipe>
 80003de:	f000 fabd 	bl	800095c <startListening>
 80003e2:	2220      	movs	r2, #32
 80003e4:	0029      	movs	r1, r5
 80003e6:	0020      	movs	r0, r4
 80003e8:	f001 fc55 	bl	8001c96 <memset>
 80003ec:	466b      	mov	r3, sp
 80003ee:	1cde      	adds	r6, r3, #3
 80003f0:	7035      	strb	r5, [r6, #0]
 80003f2:	0030      	movs	r0, r6
 80003f4:	f000 fa1c 	bl	8000830 <available>
 80003f8:	2800      	cmp	r0, #0
 80003fa:	d0fa      	beq.n	80003f2 <main+0x14e>
 80003fc:	7833      	ldrb	r3, [r6, #0]
 80003fe:	2b01      	cmp	r3, #1
 8000400:	d1f7      	bne.n	80003f2 <main+0x14e>
 8000402:	f000 f9e7 	bl	80007d4 <getDynamicPayloadSize>
 8000406:	0005      	movs	r5, r0
 8000408:	0001      	movs	r1, r0
 800040a:	0020      	movs	r0, r4
 800040c:	f000 fa23 	bl	8000856 <read>
 8000410:	2d01      	cmp	r5, #1
 8000412:	d9ee      	bls.n	80003f2 <main+0x14e>
 8000414:	7823      	ldrb	r3, [r4, #0]
 8000416:	2b01      	cmp	r3, #1
 8000418:	d1eb      	bne.n	80003f2 <main+0x14e>
 800041a:	7863      	ldrb	r3, [r4, #1]
 800041c:	2b01      	cmp	r3, #1
 800041e:	d010      	beq.n	8000442 <main+0x19e>
 8000420:	2b02      	cmp	r3, #2
 8000422:	d1e6      	bne.n	80003f2 <main+0x14e>
 8000424:	2d03      	cmp	r5, #3
 8000426:	d9e4      	bls.n	80003f2 <main+0x14e>
 8000428:	4d13      	ldr	r5, [pc, #76]	; (8000478 <main+0x1d4>)
 800042a:	78a2      	ldrb	r2, [r4, #2]
 800042c:	78ab      	ldrb	r3, [r5, #2]
 800042e:	429a      	cmp	r2, r3
 8000430:	d1df      	bne.n	80003f2 <main+0x14e>
 8000432:	f000 f972 	bl	800071a <stopListening>
 8000436:	78e0      	ldrb	r0, [r4, #3]
 8000438:	f7ff fef2 	bl	8000220 <setupOutputs>
 800043c:	2104      	movs	r1, #4
 800043e:	0028      	movs	r0, r5
 8000440:	e003      	b.n	800044a <main+0x1a6>
 8000442:	f000 f96a 	bl	800071a <stopListening>
 8000446:	2104      	movs	r1, #4
 8000448:	480b      	ldr	r0, [pc, #44]	; (8000478 <main+0x1d4>)
 800044a:	f000 f9a9 	bl	80007a0 <write>
 800044e:	f000 fa85 	bl	800095c <startListening>
 8000452:	e7ce      	b.n	80003f2 <main+0x14e>
 8000454:	40021000 	.word	0x40021000
 8000458:	48001400 	.word	0x48001400
 800045c:	0000061d 	.word	0x0000061d
 8000460:	48000400 	.word	0x48000400
 8000464:	10210000 	.word	0x10210000
 8000468:	20000050 	.word	0x20000050
 800046c:	40013000 	.word	0x40013000
 8000470:	3c70fd6c 	.word	0x3c70fd6c
 8000474:	3c70fd6b 	.word	0x3c70fd6b
 8000478:	2000001c 	.word	0x2000001c

0800047c <csn>:
 800047c:	0002      	movs	r2, r0
 800047e:	2090      	movs	r0, #144	; 0x90
 8000480:	b510      	push	{r4, lr}
 8000482:	2108      	movs	r1, #8
 8000484:	05c0      	lsls	r0, r0, #23
 8000486:	f000 fd39 	bl	8000efc <HAL_GPIO_WritePin>
 800048a:	bd10      	pop	{r4, pc}

0800048c <ce>:
 800048c:	0002      	movs	r2, r0
 800048e:	2090      	movs	r0, #144	; 0x90
 8000490:	b510      	push	{r4, lr}
 8000492:	2104      	movs	r1, #4
 8000494:	05c0      	lsls	r0, r0, #23
 8000496:	f000 fd31 	bl	8000efc <HAL_GPIO_WritePin>
 800049a:	bd10      	pop	{r4, pc}

0800049c <read_register>:
 800049c:	b5f0      	push	{r4, r5, r6, r7, lr}
 800049e:	231f      	movs	r3, #31
 80004a0:	250e      	movs	r5, #14
 80004a2:	b085      	sub	sp, #20
 80004a4:	4018      	ands	r0, r3
 80004a6:	446d      	add	r5, sp
 80004a8:	240f      	movs	r4, #15
 80004aa:	7028      	strb	r0, [r5, #0]
 80004ac:	2000      	movs	r0, #0
 80004ae:	27fa      	movs	r7, #250	; 0xfa
 80004b0:	446c      	add	r4, sp
 80004b2:	7020      	strb	r0, [r4, #0]
 80004b4:	f7ff ffe2 	bl	800047c <csn>
 80004b8:	4e0a      	ldr	r6, [pc, #40]	; (80004e4 <read_register+0x48>)
 80004ba:	00bf      	lsls	r7, r7, #2
 80004bc:	0022      	movs	r2, r4
 80004be:	0029      	movs	r1, r5
 80004c0:	9700      	str	r7, [sp, #0]
 80004c2:	2301      	movs	r3, #1
 80004c4:	0030      	movs	r0, r6
 80004c6:	f001 f9fb 	bl	80018c0 <HAL_SPI_TransmitReceive>
 80004ca:	2301      	movs	r3, #1
 80004cc:	0022      	movs	r2, r4
 80004ce:	21ff      	movs	r1, #255	; 0xff
 80004d0:	9700      	str	r7, [sp, #0]
 80004d2:	0030      	movs	r0, r6
 80004d4:	f001 f9f4 	bl	80018c0 <HAL_SPI_TransmitReceive>
 80004d8:	2001      	movs	r0, #1
 80004da:	f7ff ffcf 	bl	800047c <csn>
 80004de:	7820      	ldrb	r0, [r4, #0]
 80004e0:	b005      	add	sp, #20
 80004e2:	bdf0      	pop	{r4, r5, r6, r7, pc}
 80004e4:	20000050 	.word	0x20000050

080004e8 <write_registerMy>:
 80004e8:	b5f0      	push	{r4, r5, r6, r7, lr}
 80004ea:	240e      	movs	r4, #14
 80004ec:	270f      	movs	r7, #15
 80004ee:	b087      	sub	sp, #28
 80004f0:	9203      	str	r2, [sp, #12]
 80004f2:	aa02      	add	r2, sp, #8
 80004f4:	18a4      	adds	r4, r4, r2
 80004f6:	18bf      	adds	r7, r7, r2
 80004f8:	0003      	movs	r3, r0
 80004fa:	221f      	movs	r2, #31
 80004fc:	401a      	ands	r2, r3
 80004fe:	2320      	movs	r3, #32
 8000500:	2000      	movs	r0, #0
 8000502:	2664      	movs	r6, #100	; 0x64
 8000504:	4313      	orrs	r3, r2
 8000506:	9102      	str	r1, [sp, #8]
 8000508:	7020      	strb	r0, [r4, #0]
 800050a:	703b      	strb	r3, [r7, #0]
 800050c:	f7ff ffb6 	bl	800047c <csn>
 8000510:	4d0a      	ldr	r5, [pc, #40]	; (800053c <write_registerMy+0x54>)
 8000512:	0022      	movs	r2, r4
 8000514:	0039      	movs	r1, r7
 8000516:	9600      	str	r6, [sp, #0]
 8000518:	2301      	movs	r3, #1
 800051a:	0028      	movs	r0, r5
 800051c:	f001 f9d0 	bl	80018c0 <HAL_SPI_TransmitReceive>
 8000520:	466b      	mov	r3, sp
 8000522:	9902      	ldr	r1, [sp, #8]
 8000524:	899a      	ldrh	r2, [r3, #12]
 8000526:	0028      	movs	r0, r5
 8000528:	0033      	movs	r3, r6
 800052a:	f001 f90d 	bl	8001748 <HAL_SPI_Transmit>
 800052e:	2001      	movs	r0, #1
 8000530:	f7ff ffa4 	bl	800047c <csn>
 8000534:	7820      	ldrb	r0, [r4, #0]
 8000536:	b007      	add	sp, #28
 8000538:	bdf0      	pop	{r4, r5, r6, r7, pc}
 800053a:	46c0      	nop			; (mov r8, r8)
 800053c:	20000050 	.word	0x20000050

08000540 <write_register>:
 8000540:	0003      	movs	r3, r0
 8000542:	221f      	movs	r2, #31
 8000544:	b5f0      	push	{r4, r5, r6, r7, lr}
 8000546:	401a      	ands	r2, r3
 8000548:	250f      	movs	r5, #15
 800054a:	2416      	movs	r4, #22
 800054c:	2617      	movs	r6, #23
 800054e:	2320      	movs	r3, #32
 8000550:	2000      	movs	r0, #0
 8000552:	b087      	sub	sp, #28
 8000554:	446c      	add	r4, sp
 8000556:	4313      	orrs	r3, r2
 8000558:	446d      	add	r5, sp
 800055a:	446e      	add	r6, sp
 800055c:	7029      	strb	r1, [r5, #0]
 800055e:	7020      	strb	r0, [r4, #0]
 8000560:	7033      	strb	r3, [r6, #0]
 8000562:	f7ff ff8b 	bl	800047c <csn>
 8000566:	2364      	movs	r3, #100	; 0x64
 8000568:	4f0a      	ldr	r7, [pc, #40]	; (8000594 <write_register+0x54>)
 800056a:	9300      	str	r3, [sp, #0]
 800056c:	0022      	movs	r2, r4
 800056e:	0031      	movs	r1, r6
 8000570:	3b63      	subs	r3, #99	; 0x63
 8000572:	0038      	movs	r0, r7
 8000574:	f001 f9a4 	bl	80018c0 <HAL_SPI_TransmitReceive>
 8000578:	23fa      	movs	r3, #250	; 0xfa
 800057a:	2201      	movs	r2, #1
 800057c:	009b      	lsls	r3, r3, #2
 800057e:	0029      	movs	r1, r5
 8000580:	0038      	movs	r0, r7
 8000582:	f001 f8e1 	bl	8001748 <HAL_SPI_Transmit>
 8000586:	2001      	movs	r0, #1
 8000588:	f7ff ff78 	bl	800047c <csn>
 800058c:	7820      	ldrb	r0, [r4, #0]
 800058e:	b007      	add	sp, #28
 8000590:	bdf0      	pop	{r4, r5, r6, r7, pc}
 8000592:	46c0      	nop			; (mov r8, r8)
 8000594:	20000050 	.word	0x20000050

08000598 <write_payload>:
 8000598:	b5f0      	push	{r4, r5, r6, r7, lr}
 800059a:	250d      	movs	r5, #13
 800059c:	b087      	sub	sp, #28
 800059e:	ab02      	add	r3, sp, #8
 80005a0:	18ed      	adds	r5, r5, r3
 80005a2:	2300      	movs	r3, #0
 80005a4:	270e      	movs	r7, #14
 80005a6:	702b      	strb	r3, [r5, #0]
 80005a8:	ab02      	add	r3, sp, #8
 80005aa:	18ff      	adds	r7, r7, r3
 80005ac:	4b1b      	ldr	r3, [pc, #108]	; (800061c <write_payload+0x84>)
 80005ae:	703a      	strb	r2, [r7, #0]
 80005b0:	781b      	ldrb	r3, [r3, #0]
 80005b2:	9003      	str	r0, [sp, #12]
 80005b4:	1c1a      	adds	r2, r3, #0
 80005b6:	428b      	cmp	r3, r1
 80005b8:	d900      	bls.n	80005bc <write_payload+0x24>
 80005ba:	1c0a      	adds	r2, r1, #0
 80005bc:	2400      	movs	r4, #0
 80005be:	b2d2      	uxtb	r2, r2
 80005c0:	9202      	str	r2, [sp, #8]
 80005c2:	4a17      	ldr	r2, [pc, #92]	; (8000620 <write_payload+0x88>)
 80005c4:	7812      	ldrb	r2, [r2, #0]
 80005c6:	42a2      	cmp	r2, r4
 80005c8:	d102      	bne.n	80005d0 <write_payload+0x38>
 80005ca:	9a02      	ldr	r2, [sp, #8]
 80005cc:	1a9c      	subs	r4, r3, r2
 80005ce:	b2e4      	uxtb	r4, r4
 80005d0:	2000      	movs	r0, #0
 80005d2:	f7ff ff53 	bl	800047c <csn>
 80005d6:	2364      	movs	r3, #100	; 0x64
 80005d8:	4e12      	ldr	r6, [pc, #72]	; (8000624 <write_payload+0x8c>)
 80005da:	9300      	str	r3, [sp, #0]
 80005dc:	002a      	movs	r2, r5
 80005de:	3b63      	subs	r3, #99	; 0x63
 80005e0:	0039      	movs	r1, r7
 80005e2:	0030      	movs	r0, r6
 80005e4:	f001 f96c 	bl	80018c0 <HAL_SPI_TransmitReceive>
 80005e8:	466b      	mov	r3, sp
 80005ea:	891a      	ldrh	r2, [r3, #8]
 80005ec:	2364      	movs	r3, #100	; 0x64
 80005ee:	9903      	ldr	r1, [sp, #12]
 80005f0:	3c01      	subs	r4, #1
 80005f2:	0030      	movs	r0, r6
 80005f4:	b2e4      	uxtb	r4, r4
 80005f6:	f001 f8a7 	bl	8001748 <HAL_SPI_Transmit>
 80005fa:	2cff      	cmp	r4, #255	; 0xff
 80005fc:	d105      	bne.n	800060a <write_payload+0x72>
 80005fe:	2001      	movs	r0, #1
 8000600:	f7ff ff3c 	bl	800047c <csn>
 8000604:	7828      	ldrb	r0, [r5, #0]
 8000606:	b007      	add	sp, #28
 8000608:	bdf0      	pop	{r4, r5, r6, r7, pc}
 800060a:	210f      	movs	r1, #15
 800060c:	ab02      	add	r3, sp, #8
 800060e:	18c9      	adds	r1, r1, r3
 8000610:	2300      	movs	r3, #0
 8000612:	2201      	movs	r2, #1
 8000614:	700b      	strb	r3, [r1, #0]
 8000616:	3364      	adds	r3, #100	; 0x64
 8000618:	e7ea      	b.n	80005f0 <write_payload+0x58>
 800061a:	46c0      	nop			; (mov r8, r8)
 800061c:	20000049 	.word	0x20000049
 8000620:	200000b4 	.word	0x200000b4
 8000624:	20000050 	.word	0x20000050

08000628 <read_payload>:
 8000628:	b5f0      	push	{r4, r5, r6, r7, lr}
 800062a:	4b1a      	ldr	r3, [pc, #104]	; (8000694 <read_payload+0x6c>)
 800062c:	b085      	sub	sp, #20
 800062e:	781b      	ldrb	r3, [r3, #0]
 8000630:	9001      	str	r0, [sp, #4]
 8000632:	1c1c      	adds	r4, r3, #0
 8000634:	428b      	cmp	r3, r1
 8000636:	d900      	bls.n	800063a <read_payload+0x12>
 8000638:	1c0c      	adds	r4, r1, #0
 800063a:	2500      	movs	r5, #0
 800063c:	4a16      	ldr	r2, [pc, #88]	; (8000698 <read_payload+0x70>)
 800063e:	b2e4      	uxtb	r4, r4
 8000640:	7812      	ldrb	r2, [r2, #0]
 8000642:	42aa      	cmp	r2, r5
 8000644:	d101      	bne.n	800064a <read_payload+0x22>
 8000646:	1b1d      	subs	r5, r3, r4
 8000648:	b2ed      	uxtb	r5, r5
 800064a:	ab02      	add	r3, sp, #8
 800064c:	1d9f      	adds	r7, r3, #6
 800064e:	2361      	movs	r3, #97	; 0x61
 8000650:	2000      	movs	r0, #0
 8000652:	703b      	strb	r3, [r7, #0]
 8000654:	f7ff ff12 	bl	800047c <csn>
 8000658:	4e10      	ldr	r6, [pc, #64]	; (800069c <read_payload+0x74>)
 800065a:	2364      	movs	r3, #100	; 0x64
 800065c:	2201      	movs	r2, #1
 800065e:	0039      	movs	r1, r7
 8000660:	0030      	movs	r0, r6
 8000662:	f001 f871 	bl	8001748 <HAL_SPI_Transmit>
 8000666:	2364      	movs	r3, #100	; 0x64
 8000668:	9901      	ldr	r1, [sp, #4]
 800066a:	b2a2      	uxth	r2, r4
 800066c:	3d01      	subs	r5, #1
 800066e:	0030      	movs	r0, r6
 8000670:	b2ed      	uxtb	r5, r5
 8000672:	f001 fa27 	bl	8001ac4 <HAL_SPI_Receive>
 8000676:	2dff      	cmp	r5, #255	; 0xff
 8000678:	d105      	bne.n	8000686 <read_payload+0x5e>
 800067a:	2001      	movs	r0, #1
 800067c:	f7ff fefe 	bl	800047c <csn>
 8000680:	2000      	movs	r0, #0
 8000682:	b005      	add	sp, #20
 8000684:	bdf0      	pop	{r4, r5, r6, r7, pc}
 8000686:	ab02      	add	r3, sp, #8
 8000688:	1dd9      	adds	r1, r3, #7
 800068a:	2300      	movs	r3, #0
 800068c:	2201      	movs	r2, #1
 800068e:	700b      	strb	r3, [r1, #0]
 8000690:	3364      	adds	r3, #100	; 0x64
 8000692:	e7eb      	b.n	800066c <read_payload+0x44>
 8000694:	20000049 	.word	0x20000049
 8000698:	200000b4 	.word	0x200000b4
 800069c:	20000050 	.word	0x20000050

080006a0 <spiTrans>:
 80006a0:	b530      	push	{r4, r5, lr}
 80006a2:	250f      	movs	r5, #15
 80006a4:	b087      	sub	sp, #28
 80006a6:	446d      	add	r5, sp
 80006a8:	2417      	movs	r4, #23
 80006aa:	7028      	strb	r0, [r5, #0]
 80006ac:	2000      	movs	r0, #0
 80006ae:	446c      	add	r4, sp
 80006b0:	7020      	strb	r0, [r4, #0]
 80006b2:	f7ff fee3 	bl	800047c <csn>
 80006b6:	23fa      	movs	r3, #250	; 0xfa
 80006b8:	009b      	lsls	r3, r3, #2
 80006ba:	9300      	str	r3, [sp, #0]
 80006bc:	0022      	movs	r2, r4
 80006be:	2301      	movs	r3, #1
 80006c0:	0029      	movs	r1, r5
 80006c2:	4804      	ldr	r0, [pc, #16]	; (80006d4 <spiTrans+0x34>)
 80006c4:	f001 f8fc 	bl	80018c0 <HAL_SPI_TransmitReceive>
 80006c8:	2001      	movs	r0, #1
 80006ca:	f7ff fed7 	bl	800047c <csn>
 80006ce:	7820      	ldrb	r0, [r4, #0]
 80006d0:	b007      	add	sp, #28
 80006d2:	bd30      	pop	{r4, r5, pc}
 80006d4:	20000050 	.word	0x20000050

080006d8 <flush_rx>:
 80006d8:	b510      	push	{r4, lr}
 80006da:	20e2      	movs	r0, #226	; 0xe2
 80006dc:	f7ff ffe0 	bl	80006a0 <spiTrans>
 80006e0:	bd10      	pop	{r4, pc}

080006e2 <flush_tx>:
 80006e2:	b510      	push	{r4, lr}
 80006e4:	20e1      	movs	r0, #225	; 0xe1
 80006e6:	f7ff ffdb 	bl	80006a0 <spiTrans>
 80006ea:	bd10      	pop	{r4, pc}

080006ec <get_status>:
 80006ec:	b510      	push	{r4, lr}
 80006ee:	20ff      	movs	r0, #255	; 0xff
 80006f0:	f7ff ffd6 	bl	80006a0 <spiTrans>
 80006f4:	bd10      	pop	{r4, pc}

080006f6 <setChannel>:
 80006f6:	b510      	push	{r4, lr}
 80006f8:	0001      	movs	r1, r0
 80006fa:	2005      	movs	r0, #5
 80006fc:	f7ff ff20 	bl	8000540 <write_register>
 8000700:	bd10      	pop	{r4, pc}

08000702 <isChipConnected>:
 8000702:	b510      	push	{r4, lr}
 8000704:	2003      	movs	r0, #3
 8000706:	f7ff fec9 	bl	800049c <read_register>
 800070a:	3801      	subs	r0, #1
 800070c:	b2c3      	uxtb	r3, r0
 800070e:	2202      	movs	r2, #2
 8000710:	2000      	movs	r0, #0
 8000712:	429a      	cmp	r2, r3
 8000714:	4140      	adcs	r0, r0
 8000716:	b2c0      	uxtb	r0, r0
 8000718:	bd10      	pop	{r4, pc}

0800071a <stopListening>:
 800071a:	b510      	push	{r4, lr}
 800071c:	2000      	movs	r0, #0
 800071e:	f7ff feb5 	bl	800048c <ce>
 8000722:	2001      	movs	r0, #1
 8000724:	f000 fae0 	bl	8000ce8 <HAL_Delay>
 8000728:	201d      	movs	r0, #29
 800072a:	f7ff feb7 	bl	800049c <read_register>
 800072e:	0783      	lsls	r3, r0, #30
 8000730:	d504      	bpl.n	800073c <stopListening+0x22>
 8000732:	2001      	movs	r0, #1
 8000734:	f000 fad8 	bl	8000ce8 <HAL_Delay>
 8000738:	f7ff ffd3 	bl	80006e2 <flush_tx>
 800073c:	2000      	movs	r0, #0
 800073e:	f7ff fead 	bl	800049c <read_register>
 8000742:	2401      	movs	r4, #1
 8000744:	43a0      	bics	r0, r4
 8000746:	b2c1      	uxtb	r1, r0
 8000748:	2000      	movs	r0, #0
 800074a:	f7ff fef9 	bl	8000540 <write_register>
 800074e:	2002      	movs	r0, #2
 8000750:	f7ff fea4 	bl	800049c <read_register>
 8000754:	4304      	orrs	r4, r0
 8000756:	b2e1      	uxtb	r1, r4
 8000758:	2002      	movs	r0, #2
 800075a:	f7ff fef1 	bl	8000540 <write_register>
 800075e:	bd10      	pop	{r4, pc}

08000760 <powerUp>:
 8000760:	b510      	push	{r4, lr}
 8000762:	2000      	movs	r0, #0
 8000764:	f7ff fe9a 	bl	800049c <read_register>
 8000768:	2102      	movs	r1, #2
 800076a:	0003      	movs	r3, r0
 800076c:	400b      	ands	r3, r1
 800076e:	d107      	bne.n	8000780 <powerUp+0x20>
 8000770:	4301      	orrs	r1, r0
 8000772:	b2c9      	uxtb	r1, r1
 8000774:	0018      	movs	r0, r3
 8000776:	f7ff fee3 	bl	8000540 <write_register>
 800077a:	2005      	movs	r0, #5
 800077c:	f000 fab4 	bl	8000ce8 <HAL_Delay>
 8000780:	bd10      	pop	{r4, pc}

08000782 <startFastWrite>:
 8000782:	b510      	push	{r4, lr}
 8000784:	001c      	movs	r4, r3
 8000786:	23b0      	movs	r3, #176	; 0xb0
 8000788:	2a00      	cmp	r2, #0
 800078a:	d100      	bne.n	800078e <startFastWrite+0xc>
 800078c:	3b10      	subs	r3, #16
 800078e:	001a      	movs	r2, r3
 8000790:	f7ff ff02 	bl	8000598 <write_payload>
 8000794:	2c00      	cmp	r4, #0
 8000796:	d002      	beq.n	800079e <startFastWrite+0x1c>
 8000798:	2001      	movs	r0, #1
 800079a:	f7ff fe77 	bl	800048c <ce>
 800079e:	bd10      	pop	{r4, pc}

080007a0 <write>:
 80007a0:	2301      	movs	r3, #1
 80007a2:	b510      	push	{r4, lr}
 80007a4:	001a      	movs	r2, r3
 80007a6:	f7ff ffec 	bl	8000782 <startFastWrite>
 80007aa:	2430      	movs	r4, #48	; 0x30
 80007ac:	f7ff ff9e 	bl	80006ec <get_status>
 80007b0:	4220      	tst	r0, r4
 80007b2:	d0fb      	beq.n	80007ac <write+0xc>
 80007b4:	2000      	movs	r0, #0
 80007b6:	f7ff fe69 	bl	800048c <ce>
 80007ba:	2170      	movs	r1, #112	; 0x70
 80007bc:	2007      	movs	r0, #7
 80007be:	f7ff febf 	bl	8000540 <write_register>
 80007c2:	2301      	movs	r3, #1
 80007c4:	06c2      	lsls	r2, r0, #27
 80007c6:	d502      	bpl.n	80007ce <write+0x2e>
 80007c8:	f7ff ff8b 	bl	80006e2 <flush_tx>
 80007cc:	2300      	movs	r3, #0
 80007ce:	0018      	movs	r0, r3
 80007d0:	bd10      	pop	{r4, pc}
	...

080007d4 <getDynamicPayloadSize>:
 80007d4:	b5f0      	push	{r4, r5, r6, r7, lr}
 80007d6:	2500      	movs	r5, #0
 80007d8:	240e      	movs	r4, #14
 80007da:	b085      	sub	sp, #20
 80007dc:	446c      	add	r4, sp
 80007de:	0028      	movs	r0, r5
 80007e0:	7025      	strb	r5, [r4, #0]
 80007e2:	27fa      	movs	r7, #250	; 0xfa
 80007e4:	f7ff fe4a 	bl	800047c <csn>
 80007e8:	210f      	movs	r1, #15
 80007ea:	2360      	movs	r3, #96	; 0x60
 80007ec:	4e0f      	ldr	r6, [pc, #60]	; (800082c <getDynamicPayloadSize+0x58>)
 80007ee:	4469      	add	r1, sp
 80007f0:	00bf      	lsls	r7, r7, #2
 80007f2:	700b      	strb	r3, [r1, #0]
 80007f4:	0022      	movs	r2, r4
 80007f6:	3b5f      	subs	r3, #95	; 0x5f
 80007f8:	9700      	str	r7, [sp, #0]
 80007fa:	0030      	movs	r0, r6
 80007fc:	f001 f860 	bl	80018c0 <HAL_SPI_TransmitReceive>
 8000800:	2301      	movs	r3, #1
 8000802:	0022      	movs	r2, r4
 8000804:	21ff      	movs	r1, #255	; 0xff
 8000806:	9700      	str	r7, [sp, #0]
 8000808:	0030      	movs	r0, r6
 800080a:	f001 f859 	bl	80018c0 <HAL_SPI_TransmitReceive>
 800080e:	2001      	movs	r0, #1
 8000810:	f7ff fe34 	bl	800047c <csn>
 8000814:	7820      	ldrb	r0, [r4, #0]
 8000816:	2820      	cmp	r0, #32
 8000818:	d905      	bls.n	8000826 <getDynamicPayloadSize+0x52>
 800081a:	f7ff ff5d 	bl	80006d8 <flush_rx>
 800081e:	2002      	movs	r0, #2
 8000820:	f000 fa62 	bl	8000ce8 <HAL_Delay>
 8000824:	0028      	movs	r0, r5
 8000826:	b005      	add	sp, #20
 8000828:	bdf0      	pop	{r4, r5, r6, r7, pc}
 800082a:	46c0      	nop			; (mov r8, r8)
 800082c:	20000050 	.word	0x20000050

08000830 <available>:
 8000830:	b570      	push	{r4, r5, r6, lr}
 8000832:	0005      	movs	r5, r0
 8000834:	2017      	movs	r0, #23
 8000836:	f7ff fe31 	bl	800049c <read_register>
 800083a:	2301      	movs	r3, #1
 800083c:	2400      	movs	r4, #0
 800083e:	4218      	tst	r0, r3
 8000840:	d107      	bne.n	8000852 <available+0x22>
 8000842:	001c      	movs	r4, r3
 8000844:	2d00      	cmp	r5, #0
 8000846:	d004      	beq.n	8000852 <available+0x22>
 8000848:	f7ff ff50 	bl	80006ec <get_status>
 800084c:	0700      	lsls	r0, r0, #28
 800084e:	0f40      	lsrs	r0, r0, #29
 8000850:	7028      	strb	r0, [r5, #0]
 8000852:	0020      	movs	r0, r4
 8000854:	bd70      	pop	{r4, r5, r6, pc}

08000856 <read>:
 8000856:	b510      	push	{r4, lr}
 8000858:	f7ff fee6 	bl	8000628 <read_payload>
 800085c:	2170      	movs	r1, #112	; 0x70
 800085e:	2007      	movs	r0, #7
 8000860:	f7ff fe6e 	bl	8000540 <write_register>
 8000864:	bd10      	pop	{r4, pc}
	...

08000868 <openWritingPipe>:
 8000868:	b513      	push	{r0, r1, r4, lr}
 800086a:	4c09      	ldr	r4, [pc, #36]	; (8000890 <openWritingPipe+0x28>)
 800086c:	9000      	str	r0, [sp, #0]
 800086e:	9101      	str	r1, [sp, #4]
 8000870:	7822      	ldrb	r2, [r4, #0]
 8000872:	4669      	mov	r1, sp
 8000874:	200a      	movs	r0, #10
 8000876:	f7ff fe37 	bl	80004e8 <write_registerMy>
 800087a:	7822      	ldrb	r2, [r4, #0]
 800087c:	4669      	mov	r1, sp
 800087e:	2010      	movs	r0, #16
 8000880:	f7ff fe32 	bl	80004e8 <write_registerMy>
 8000884:	4b03      	ldr	r3, [pc, #12]	; (8000894 <openWritingPipe+0x2c>)
 8000886:	2011      	movs	r0, #17
 8000888:	7819      	ldrb	r1, [r3, #0]
 800088a:	f7ff fe59 	bl	8000540 <write_register>
 800088e:	bd13      	pop	{r0, r1, r4, pc}
 8000890:	20000048 	.word	0x20000048
 8000894:	20000049 	.word	0x20000049

08000898 <openReadingPipe>:
 8000898:	b513      	push	{r0, r1, r4, lr}
 800089a:	0004      	movs	r4, r0
 800089c:	9200      	str	r2, [sp, #0]
 800089e:	9301      	str	r3, [sp, #4]
 80008a0:	2800      	cmp	r0, #0
 80008a2:	d10a      	bne.n	80008ba <openReadingPipe+0x22>
 80008a4:	4b13      	ldr	r3, [pc, #76]	; (80008f4 <openReadingPipe+0x5c>)
 80008a6:	4669      	mov	r1, sp
 80008a8:	781a      	ldrb	r2, [r3, #0]
 80008aa:	4813      	ldr	r0, [pc, #76]	; (80008f8 <openReadingPipe+0x60>)
 80008ac:	f001 f9ea 	bl	8001c84 <memcpy>
 80008b0:	4b10      	ldr	r3, [pc, #64]	; (80008f4 <openReadingPipe+0x5c>)
 80008b2:	781a      	ldrb	r2, [r3, #0]
 80008b4:	4b11      	ldr	r3, [pc, #68]	; (80008fc <openReadingPipe+0x64>)
 80008b6:	5d18      	ldrb	r0, [r3, r4]
 80008b8:	e006      	b.n	80008c8 <openReadingPipe+0x30>
 80008ba:	2806      	cmp	r0, #6
 80008bc:	d819      	bhi.n	80008f2 <openReadingPipe+0x5a>
 80008be:	4b0f      	ldr	r3, [pc, #60]	; (80008fc <openReadingPipe+0x64>)
 80008c0:	2201      	movs	r2, #1
 80008c2:	5c18      	ldrb	r0, [r3, r0]
 80008c4:	2c01      	cmp	r4, #1
 80008c6:	d0f3      	beq.n	80008b0 <openReadingPipe+0x18>
 80008c8:	4669      	mov	r1, sp
 80008ca:	f7ff fe0d 	bl	80004e8 <write_registerMy>
 80008ce:	4b0c      	ldr	r3, [pc, #48]	; (8000900 <openReadingPipe+0x68>)
 80008d0:	7819      	ldrb	r1, [r3, #0]
 80008d2:	4b0c      	ldr	r3, [pc, #48]	; (8000904 <openReadingPipe+0x6c>)
 80008d4:	5d18      	ldrb	r0, [r3, r4]
 80008d6:	f7ff fe33 	bl	8000540 <write_register>
 80008da:	2002      	movs	r0, #2
 80008dc:	f7ff fdde 	bl	800049c <read_register>
 80008e0:	2101      	movs	r1, #1
 80008e2:	4b09      	ldr	r3, [pc, #36]	; (8000908 <openReadingPipe+0x70>)
 80008e4:	5d1b      	ldrb	r3, [r3, r4]
 80008e6:	4099      	lsls	r1, r3
 80008e8:	4301      	orrs	r1, r0
 80008ea:	b2c9      	uxtb	r1, r1
 80008ec:	2002      	movs	r0, #2
 80008ee:	f7ff fe27 	bl	8000540 <write_register>
 80008f2:	bd13      	pop	{r0, r1, r4, pc}
 80008f4:	20000048 	.word	0x20000048
 80008f8:	2000004a 	.word	0x2000004a
 80008fc:	08001cf4 	.word	0x08001cf4
 8000900:	20000049 	.word	0x20000049
 8000904:	08001cee 	.word	0x08001cee
 8000908:	08001cfa 	.word	0x08001cfa

0800090c <setAddressWidth>:
 800090c:	3802      	subs	r0, #2
 800090e:	b2c1      	uxtb	r1, r0
 8000910:	b570      	push	{r4, r5, r6, lr}
 8000912:	2003      	movs	r0, #3
 8000914:	4d07      	ldr	r5, [pc, #28]	; (8000934 <setAddressWidth+0x28>)
 8000916:	2900      	cmp	r1, #0
 8000918:	d006      	beq.n	8000928 <setAddressWidth+0x1c>
 800091a:	4001      	ands	r1, r0
 800091c:	000c      	movs	r4, r1
 800091e:	3402      	adds	r4, #2
 8000920:	f7ff fe0e 	bl	8000540 <write_register>
 8000924:	702c      	strb	r4, [r5, #0]
 8000926:	bd70      	pop	{r4, r5, r6, pc}
 8000928:	f7ff fe0a 	bl	8000540 <write_register>
 800092c:	2302      	movs	r3, #2
 800092e:	702b      	strb	r3, [r5, #0]
 8000930:	e7f9      	b.n	8000926 <setAddressWidth+0x1a>
 8000932:	46c0      	nop			; (mov r8, r8)
 8000934:	20000048 	.word	0x20000048

08000938 <closeReadingPipe>:
 8000938:	b510      	push	{r4, lr}
 800093a:	0004      	movs	r4, r0
 800093c:	2002      	movs	r0, #2
 800093e:	f7ff fdad 	bl	800049c <read_register>
 8000942:	4b05      	ldr	r3, [pc, #20]	; (8000958 <closeReadingPipe+0x20>)
 8000944:	5d1a      	ldrb	r2, [r3, r4]
 8000946:	2301      	movs	r3, #1
 8000948:	4093      	lsls	r3, r2
 800094a:	4398      	bics	r0, r3
 800094c:	b2c1      	uxtb	r1, r0
 800094e:	2002      	movs	r0, #2
 8000950:	f7ff fdf6 	bl	8000540 <write_register>
 8000954:	bd10      	pop	{r4, pc}
 8000956:	46c0      	nop			; (mov r8, r8)
 8000958:	08001cfa 	.word	0x08001cfa

0800095c <startListening>:
 800095c:	b510      	push	{r4, lr}
 800095e:	f7ff feff 	bl	8000760 <powerUp>
 8000962:	2000      	movs	r0, #0
 8000964:	f7ff fd9a 	bl	800049c <read_register>
 8000968:	2401      	movs	r4, #1
 800096a:	4320      	orrs	r0, r4
 800096c:	b2c1      	uxtb	r1, r0
 800096e:	2000      	movs	r0, #0
 8000970:	f7ff fde6 	bl	8000540 <write_register>
 8000974:	2170      	movs	r1, #112	; 0x70
 8000976:	2007      	movs	r0, #7
 8000978:	f7ff fde2 	bl	8000540 <write_register>
 800097c:	0020      	movs	r0, r4
 800097e:	f7ff fd85 	bl	800048c <ce>
 8000982:	490a      	ldr	r1, [pc, #40]	; (80009ac <startListening+0x50>)
 8000984:	7808      	ldrb	r0, [r1, #0]
 8000986:	2800      	cmp	r0, #0
 8000988:	d00c      	beq.n	80009a4 <startListening+0x48>
 800098a:	4b09      	ldr	r3, [pc, #36]	; (80009b0 <startListening+0x54>)
 800098c:	200a      	movs	r0, #10
 800098e:	781a      	ldrb	r2, [r3, #0]
 8000990:	f7ff fdaa 	bl	80004e8 <write_registerMy>
 8000994:	201d      	movs	r0, #29
 8000996:	f7ff fd81 	bl	800049c <read_register>
 800099a:	0783      	lsls	r3, r0, #30
 800099c:	d501      	bpl.n	80009a2 <startListening+0x46>
 800099e:	f7ff fea0 	bl	80006e2 <flush_tx>
 80009a2:	bd10      	pop	{r4, pc}
 80009a4:	f7ff ffc8 	bl	8000938 <closeReadingPipe>
 80009a8:	e7f4      	b.n	8000994 <startListening+0x38>
 80009aa:	46c0      	nop			; (mov r8, r8)
 80009ac:	2000004a 	.word	0x2000004a
 80009b0:	20000048 	.word	0x20000048

080009b4 <toggle_features>:
 80009b4:	b573      	push	{r0, r1, r4, r5, r6, lr}
 80009b6:	466b      	mov	r3, sp
 80009b8:	1dde      	adds	r6, r3, #7
 80009ba:	2350      	movs	r3, #80	; 0x50
 80009bc:	25fa      	movs	r5, #250	; 0xfa
 80009be:	2000      	movs	r0, #0
 80009c0:	7033      	strb	r3, [r6, #0]
 80009c2:	f7ff fd5b 	bl	800047c <csn>
 80009c6:	4c09      	ldr	r4, [pc, #36]	; (80009ec <toggle_features+0x38>)
 80009c8:	00ad      	lsls	r5, r5, #2
 80009ca:	002b      	movs	r3, r5
 80009cc:	0031      	movs	r1, r6
 80009ce:	2201      	movs	r2, #1
 80009d0:	0020      	movs	r0, r4
 80009d2:	f000 feb9 	bl	8001748 <HAL_SPI_Transmit>
 80009d6:	002b      	movs	r3, r5
 80009d8:	2201      	movs	r2, #1
 80009da:	2173      	movs	r1, #115	; 0x73
 80009dc:	0020      	movs	r0, r4
 80009de:	f000 feb3 	bl	8001748 <HAL_SPI_Transmit>
 80009e2:	2001      	movs	r0, #1
 80009e4:	f7ff fd4a 	bl	800047c <csn>
 80009e8:	bd73      	pop	{r0, r1, r4, r5, r6, pc}
 80009ea:	46c0      	nop			; (mov r8, r8)
 80009ec:	20000050 	.word	0x20000050

080009f0 <enableDynamicPayloads>:
 80009f0:	b510      	push	{r4, lr}
 80009f2:	201d      	movs	r0, #29
 80009f4:	f7ff fd52 	bl	800049c <read_register>
 80009f8:	2104      	movs	r1, #4
 80009fa:	4301      	orrs	r1, r0
 80009fc:	b2c9      	uxtb	r1, r1
 80009fe:	201d      	movs	r0, #29
 8000a00:	f7ff fd9e 	bl	8000540 <write_register>
 8000a04:	201c      	movs	r0, #28
 8000a06:	f7ff fd49 	bl	800049c <read_register>
 8000a0a:	213f      	movs	r1, #63	; 0x3f
 8000a0c:	4301      	orrs	r1, r0
 8000a0e:	b2c9      	uxtb	r1, r1
 8000a10:	201c      	movs	r0, #28
 8000a12:	f7ff fd95 	bl	8000540 <write_register>
 8000a16:	2201      	movs	r2, #1
 8000a18:	4b01      	ldr	r3, [pc, #4]	; (8000a20 <enableDynamicPayloads+0x30>)
 8000a1a:	701a      	strb	r2, [r3, #0]
 8000a1c:	bd10      	pop	{r4, pc}
 8000a1e:	46c0      	nop			; (mov r8, r8)
 8000a20:	200000b4 	.word	0x200000b4

08000a24 <setAutoAck>:
 8000a24:	b510      	push	{r4, lr}
 8000a26:	1e01      	subs	r1, r0, #0
 8000a28:	d000      	beq.n	8000a2c <setAutoAck+0x8>
 8000a2a:	213f      	movs	r1, #63	; 0x3f
 8000a2c:	2001      	movs	r0, #1
 8000a2e:	f7ff fd87 	bl	8000540 <write_register>
 8000a32:	bd10      	pop	{r4, pc}

08000a34 <setPALevel>:
 8000a34:	b510      	push	{r4, lr}
 8000a36:	0004      	movs	r4, r0
 8000a38:	2006      	movs	r0, #6
 8000a3a:	f7ff fd2f 	bl	800049c <read_register>
 8000a3e:	2107      	movs	r1, #7
 8000a40:	4388      	bics	r0, r1
 8000a42:	b2c0      	uxtb	r0, r0
 8000a44:	2c03      	cmp	r4, #3
 8000a46:	d802      	bhi.n	8000a4e <setPALevel+0x1a>
 8000a48:	0064      	lsls	r4, r4, #1
 8000a4a:	3401      	adds	r4, #1
 8000a4c:	b2e1      	uxtb	r1, r4
 8000a4e:	4301      	orrs	r1, r0
 8000a50:	2006      	movs	r0, #6
 8000a52:	f7ff fd75 	bl	8000540 <write_register>
 8000a56:	bd10      	pop	{r4, pc}

08000a58 <setDataRate>:
 8000a58:	b570      	push	{r4, r5, r6, lr}
 8000a5a:	0005      	movs	r5, r0
 8000a5c:	2006      	movs	r0, #6
 8000a5e:	f7ff fd1d 	bl	800049c <read_register>
 8000a62:	24d7      	movs	r4, #215	; 0xd7
 8000a64:	4b0d      	ldr	r3, [pc, #52]	; (8000a9c <setDataRate+0x44>)
 8000a66:	4004      	ands	r4, r0
 8000a68:	2d02      	cmp	r5, #2
 8000a6a:	d10f      	bne.n	8000a8c <setDataRate+0x34>
 8000a6c:	2220      	movs	r2, #32
 8000a6e:	4314      	orrs	r4, r2
 8000a70:	327b      	adds	r2, #123	; 0x7b
 8000a72:	0021      	movs	r1, r4
 8000a74:	2006      	movs	r0, #6
 8000a76:	701a      	strb	r2, [r3, #0]
 8000a78:	f7ff fd62 	bl	8000540 <write_register>
 8000a7c:	2006      	movs	r0, #6
 8000a7e:	f7ff fd0d 	bl	800049c <read_register>
 8000a82:	1a20      	subs	r0, r4, r0
 8000a84:	4244      	negs	r4, r0
 8000a86:	4160      	adcs	r0, r4
 8000a88:	b2c0      	uxtb	r0, r0
 8000a8a:	bd70      	pop	{r4, r5, r6, pc}
 8000a8c:	2255      	movs	r2, #85	; 0x55
 8000a8e:	2d01      	cmp	r5, #1
 8000a90:	d1ef      	bne.n	8000a72 <setDataRate+0x1a>
 8000a92:	2208      	movs	r2, #8
 8000a94:	4314      	orrs	r4, r2
 8000a96:	3239      	adds	r2, #57	; 0x39
 8000a98:	e7eb      	b.n	8000a72 <setDataRate+0x1a>
 8000a9a:	46c0      	nop			; (mov r8, r8)
 8000a9c:	2000004f 	.word	0x2000004f

08000aa0 <NRF_Init>:
 8000aa0:	2220      	movs	r2, #32
 8000aa2:	b5f8      	push	{r3, r4, r5, r6, r7, lr}
 8000aa4:	2705      	movs	r7, #5
 8000aa6:	2400      	movs	r4, #0
 8000aa8:	4b29      	ldr	r3, [pc, #164]	; (8000b50 <NRF_Init+0xb0>)
 8000aaa:	4d2a      	ldr	r5, [pc, #168]	; (8000b54 <NRF_Init+0xb4>)
 8000aac:	701a      	strb	r2, [r3, #0]
 8000aae:	4b2a      	ldr	r3, [pc, #168]	; (8000b58 <NRF_Init+0xb8>)
 8000ab0:	4e2a      	ldr	r6, [pc, #168]	; (8000b5c <NRF_Init+0xbc>)
 8000ab2:	701f      	strb	r7, [r3, #0]
 8000ab4:	4b2a      	ldr	r3, [pc, #168]	; (8000b60 <NRF_Init+0xc0>)
 8000ab6:	0020      	movs	r0, r4
 8000ab8:	701c      	strb	r4, [r3, #0]
 8000aba:	702c      	strb	r4, [r5, #0]
 8000abc:	7034      	strb	r4, [r6, #0]
 8000abe:	f7ff fce5 	bl	800048c <ce>
 8000ac2:	2001      	movs	r0, #1
 8000ac4:	f7ff fcda 	bl	800047c <csn>
 8000ac8:	0038      	movs	r0, r7
 8000aca:	f000 f90d 	bl	8000ce8 <HAL_Delay>
 8000ace:	210c      	movs	r1, #12
 8000ad0:	0020      	movs	r0, r4
 8000ad2:	f7ff fd35 	bl	8000540 <write_register>
 8000ad6:	215f      	movs	r1, #95	; 0x5f
 8000ad8:	2004      	movs	r0, #4
 8000ada:	f7ff fd31 	bl	8000540 <write_register>
 8000ade:	2003      	movs	r0, #3
 8000ae0:	f7ff ffa8 	bl	8000a34 <setPALevel>
 8000ae4:	2002      	movs	r0, #2
 8000ae6:	f7ff ffb7 	bl	8000a58 <setDataRate>
 8000aea:	42a0      	cmp	r0, r4
 8000aec:	d001      	beq.n	8000af2 <NRF_Init+0x52>
 8000aee:	2301      	movs	r3, #1
 8000af0:	702b      	strb	r3, [r5, #0]
 8000af2:	2006      	movs	r0, #6
 8000af4:	f7ff fcd2 	bl	800049c <read_register>
 8000af8:	2400      	movs	r4, #0
 8000afa:	0005      	movs	r5, r0
 8000afc:	2000      	movs	r0, #0
 8000afe:	f7ff ffab 	bl	8000a58 <setDataRate>
 8000b02:	f7ff ff57 	bl	80009b4 <toggle_features>
 8000b06:	2100      	movs	r1, #0
 8000b08:	201d      	movs	r0, #29
 8000b0a:	f7ff fd19 	bl	8000540 <write_register>
 8000b0e:	2100      	movs	r1, #0
 8000b10:	201c      	movs	r0, #28
 8000b12:	f7ff fd15 	bl	8000540 <write_register>
 8000b16:	2170      	movs	r1, #112	; 0x70
 8000b18:	2007      	movs	r0, #7
 8000b1a:	7034      	strb	r4, [r6, #0]
 8000b1c:	f7ff fd10 	bl	8000540 <write_register>
 8000b20:	204c      	movs	r0, #76	; 0x4c
 8000b22:	f7ff fde8 	bl	80006f6 <setChannel>
 8000b26:	f7ff fdd7 	bl	80006d8 <flush_rx>
 8000b2a:	f7ff fdda 	bl	80006e2 <flush_tx>
 8000b2e:	f7ff fe17 	bl	8000760 <powerUp>
 8000b32:	0020      	movs	r0, r4
 8000b34:	f7ff fcb2 	bl	800049c <read_register>
 8000b38:	21fe      	movs	r1, #254	; 0xfe
 8000b3a:	4001      	ands	r1, r0
 8000b3c:	0020      	movs	r0, r4
 8000b3e:	f7ff fcff 	bl	8000540 <write_register>
 8000b42:	23fd      	movs	r3, #253	; 0xfd
 8000b44:	3d01      	subs	r5, #1
 8000b46:	b2ed      	uxtb	r5, r5
 8000b48:	42ab      	cmp	r3, r5
 8000b4a:	4164      	adcs	r4, r4
 8000b4c:	b2e0      	uxtb	r0, r4
 8000b4e:	bdf8      	pop	{r3, r4, r5, r6, r7, pc}
 8000b50:	20000049 	.word	0x20000049
 8000b54:	200000b5 	.word	0x200000b5
 8000b58:	20000048 	.word	0x20000048
 8000b5c:	200000b4 	.word	0x200000b4
 8000b60:	2000004a 	.word	0x2000004a

08000b64 <HAL_MspInit>:
 8000b64:	2001      	movs	r0, #1
 8000b66:	4b0a      	ldr	r3, [pc, #40]	; (8000b90 <HAL_MspInit+0x2c>)
 8000b68:	b082      	sub	sp, #8
 8000b6a:	6999      	ldr	r1, [r3, #24]
 8000b6c:	4301      	orrs	r1, r0
 8000b6e:	6199      	str	r1, [r3, #24]
 8000b70:	2180      	movs	r1, #128	; 0x80
 8000b72:	699a      	ldr	r2, [r3, #24]
 8000b74:	0549      	lsls	r1, r1, #21
 8000b76:	4002      	ands	r2, r0
 8000b78:	9200      	str	r2, [sp, #0]
 8000b7a:	9a00      	ldr	r2, [sp, #0]
 8000b7c:	69da      	ldr	r2, [r3, #28]
 8000b7e:	430a      	orrs	r2, r1
 8000b80:	61da      	str	r2, [r3, #28]
 8000b82:	69db      	ldr	r3, [r3, #28]
 8000b84:	400b      	ands	r3, r1
 8000b86:	9301      	str	r3, [sp, #4]
 8000b88:	9b01      	ldr	r3, [sp, #4]
 8000b8a:	b002      	add	sp, #8
 8000b8c:	4770      	bx	lr
 8000b8e:	46c0      	nop			; (mov r8, r8)
 8000b90:	40021000 	.word	0x40021000

08000b94 <HAL_SPI_MspInit>:
 8000b94:	b510      	push	{r4, lr}
 8000b96:	0004      	movs	r4, r0
 8000b98:	b088      	sub	sp, #32
 8000b9a:	2214      	movs	r2, #20
 8000b9c:	2100      	movs	r1, #0
 8000b9e:	a803      	add	r0, sp, #12
 8000ba0:	f001 f879 	bl	8001c96 <memset>
 8000ba4:	4b11      	ldr	r3, [pc, #68]	; (8000bec <HAL_SPI_MspInit+0x58>)
 8000ba6:	6822      	ldr	r2, [r4, #0]
 8000ba8:	429a      	cmp	r2, r3
 8000baa:	d11d      	bne.n	8000be8 <HAL_SPI_MspInit+0x54>
 8000bac:	2080      	movs	r0, #128	; 0x80
 8000bae:	4b10      	ldr	r3, [pc, #64]	; (8000bf0 <HAL_SPI_MspInit+0x5c>)
 8000bb0:	0140      	lsls	r0, r0, #5
 8000bb2:	6999      	ldr	r1, [r3, #24]
 8000bb4:	4301      	orrs	r1, r0
 8000bb6:	6199      	str	r1, [r3, #24]
 8000bb8:	2180      	movs	r1, #128	; 0x80
 8000bba:	699a      	ldr	r2, [r3, #24]
 8000bbc:	0289      	lsls	r1, r1, #10
 8000bbe:	4002      	ands	r2, r0
 8000bc0:	9201      	str	r2, [sp, #4]
 8000bc2:	9a01      	ldr	r2, [sp, #4]
 8000bc4:	695a      	ldr	r2, [r3, #20]
 8000bc6:	2090      	movs	r0, #144	; 0x90
 8000bc8:	430a      	orrs	r2, r1
 8000bca:	615a      	str	r2, [r3, #20]
 8000bcc:	695b      	ldr	r3, [r3, #20]
 8000bce:	05c0      	lsls	r0, r0, #23
 8000bd0:	400b      	ands	r3, r1
 8000bd2:	9302      	str	r3, [sp, #8]
 8000bd4:	9b02      	ldr	r3, [sp, #8]
 8000bd6:	23e0      	movs	r3, #224	; 0xe0
 8000bd8:	9303      	str	r3, [sp, #12]
 8000bda:	3bde      	subs	r3, #222	; 0xde
 8000bdc:	9304      	str	r3, [sp, #16]
 8000bde:	a903      	add	r1, sp, #12
 8000be0:	3301      	adds	r3, #1
 8000be2:	9306      	str	r3, [sp, #24]
 8000be4:	f000 f8d6 	bl	8000d94 <HAL_GPIO_Init>
 8000be8:	b008      	add	sp, #32
 8000bea:	bd10      	pop	{r4, pc}
 8000bec:	40013000 	.word	0x40013000
 8000bf0:	40021000 	.word	0x40021000

08000bf4 <NMI_Handler>:
 8000bf4:	e7fe      	b.n	8000bf4 <NMI_Handler>

08000bf6 <HardFault_Handler>:
 8000bf6:	e7fe      	b.n	8000bf6 <HardFault_Handler>

08000bf8 <SVC_Handler>:
 8000bf8:	4770      	bx	lr

08000bfa <PendSV_Handler>:
 8000bfa:	4770      	bx	lr

08000bfc <SysTick_Handler>:
 8000bfc:	b510      	push	{r4, lr}
 8000bfe:	f000 f861 	bl	8000cc4 <HAL_IncTick>
 8000c02:	bd10      	pop	{r4, pc}

08000c04 <SystemInit>:
 8000c04:	4770      	bx	lr
	...

08000c08 <Reset_Handler>:
 8000c08:	480d      	ldr	r0, [pc, #52]	; (8000c40 <LoopForever+0x2>)
 8000c0a:	4685      	mov	sp, r0
 8000c0c:	480d      	ldr	r0, [pc, #52]	; (8000c44 <LoopForever+0x6>)
 8000c0e:	490e      	ldr	r1, [pc, #56]	; (8000c48 <LoopForever+0xa>)
 8000c10:	4a0e      	ldr	r2, [pc, #56]	; (8000c4c <LoopForever+0xe>)
 8000c12:	2300      	movs	r3, #0
 8000c14:	e002      	b.n	8000c1c <LoopCopyDataInit>

08000c16 <CopyDataInit>:
 8000c16:	58d4      	ldr	r4, [r2, r3]
 8000c18:	50c4      	str	r4, [r0, r3]
 8000c1a:	3304      	adds	r3, #4

08000c1c <LoopCopyDataInit>:
 8000c1c:	18c4      	adds	r4, r0, r3
 8000c1e:	428c      	cmp	r4, r1
 8000c20:	d3f9      	bcc.n	8000c16 <CopyDataInit>
 8000c22:	4a0b      	ldr	r2, [pc, #44]	; (8000c50 <LoopForever+0x12>)
 8000c24:	4c0b      	ldr	r4, [pc, #44]	; (8000c54 <LoopForever+0x16>)
 8000c26:	2300      	movs	r3, #0
 8000c28:	e001      	b.n	8000c2e <LoopFillZerobss>

08000c2a <FillZerobss>:
 8000c2a:	6013      	str	r3, [r2, #0]
 8000c2c:	3204      	adds	r2, #4

08000c2e <LoopFillZerobss>:
 8000c2e:	42a2      	cmp	r2, r4
 8000c30:	d3fb      	bcc.n	8000c2a <FillZerobss>
 8000c32:	f7ff ffe7 	bl	8000c04 <SystemInit>
 8000c36:	f001 f801 	bl	8001c3c <__libc_init_array>
 8000c3a:	f7ff fb33 	bl	80002a4 <main>

08000c3e <LoopForever>:
 8000c3e:	e7fe      	b.n	8000c3e <LoopForever>
 8000c40:	20001000 	.word	0x20001000
 8000c44:	20000000 	.word	0x20000000
 8000c48:	2000002c 	.word	0x2000002c
 8000c4c:	08001d18 	.word	0x08001d18
 8000c50:	2000002c 	.word	0x2000002c
 8000c54:	200000bc 	.word	0x200000bc

08000c58 <ADC1_IRQHandler>:
 8000c58:	e7fe      	b.n	8000c58 <ADC1_IRQHandler>
	...

08000c5c <HAL_InitTick>:
 8000c5c:	b570      	push	{r4, r5, r6, lr}
 8000c5e:	0005      	movs	r5, r0
 8000c60:	20fa      	movs	r0, #250	; 0xfa
 8000c62:	4b0d      	ldr	r3, [pc, #52]	; (8000c98 <HAL_InitTick+0x3c>)
 8000c64:	0080      	lsls	r0, r0, #2
 8000c66:	7819      	ldrb	r1, [r3, #0]
 8000c68:	f7ff fa4e 	bl	8000108 <__udivsi3>
 8000c6c:	4b0b      	ldr	r3, [pc, #44]	; (8000c9c <HAL_InitTick+0x40>)
 8000c6e:	0001      	movs	r1, r0
 8000c70:	6818      	ldr	r0, [r3, #0]
 8000c72:	f7ff fa49 	bl	8000108 <__udivsi3>
 8000c76:	f000 f873 	bl	8000d60 <HAL_SYSTICK_Config>
 8000c7a:	0004      	movs	r4, r0
 8000c7c:	2001      	movs	r0, #1
 8000c7e:	2c00      	cmp	r4, #0
 8000c80:	d109      	bne.n	8000c96 <HAL_InitTick+0x3a>
 8000c82:	2d03      	cmp	r5, #3
 8000c84:	d807      	bhi.n	8000c96 <HAL_InitTick+0x3a>
 8000c86:	3802      	subs	r0, #2
 8000c88:	0022      	movs	r2, r4
 8000c8a:	0029      	movs	r1, r5
 8000c8c:	f000 f83e 	bl	8000d0c <HAL_NVIC_SetPriority>
 8000c90:	0020      	movs	r0, r4
 8000c92:	4b03      	ldr	r3, [pc, #12]	; (8000ca0 <HAL_InitTick+0x44>)
 8000c94:	601d      	str	r5, [r3, #0]
 8000c96:	bd70      	pop	{r4, r5, r6, pc}
 8000c98:	20000024 	.word	0x20000024
 8000c9c:	20000020 	.word	0x20000020
 8000ca0:	20000028 	.word	0x20000028

08000ca4 <HAL_Init>:
 8000ca4:	2310      	movs	r3, #16
 8000ca6:	4a06      	ldr	r2, [pc, #24]	; (8000cc0 <HAL_Init+0x1c>)
 8000ca8:	b510      	push	{r4, lr}
 8000caa:	6811      	ldr	r1, [r2, #0]
 8000cac:	2000      	movs	r0, #0
 8000cae:	430b      	orrs	r3, r1
 8000cb0:	6013      	str	r3, [r2, #0]
 8000cb2:	f7ff ffd3 	bl	8000c5c <HAL_InitTick>
 8000cb6:	f7ff ff55 	bl	8000b64 <HAL_MspInit>
 8000cba:	2000      	movs	r0, #0
 8000cbc:	bd10      	pop	{r4, pc}
 8000cbe:	46c0      	nop			; (mov r8, r8)
 8000cc0:	40022000 	.word	0x40022000

08000cc4 <HAL_IncTick>:
 8000cc4:	4a03      	ldr	r2, [pc, #12]	; (8000cd4 <HAL_IncTick+0x10>)
 8000cc6:	4b04      	ldr	r3, [pc, #16]	; (8000cd8 <HAL_IncTick+0x14>)
 8000cc8:	6811      	ldr	r1, [r2, #0]
 8000cca:	781b      	ldrb	r3, [r3, #0]
 8000ccc:	185b      	adds	r3, r3, r1
 8000cce:	6013      	str	r3, [r2, #0]
 8000cd0:	4770      	bx	lr
 8000cd2:	46c0      	nop			; (mov r8, r8)
 8000cd4:	200000b8 	.word	0x200000b8
 8000cd8:	20000024 	.word	0x20000024

08000cdc <HAL_GetTick>:
 8000cdc:	4b01      	ldr	r3, [pc, #4]	; (8000ce4 <HAL_GetTick+0x8>)
 8000cde:	6818      	ldr	r0, [r3, #0]
 8000ce0:	4770      	bx	lr
 8000ce2:	46c0      	nop			; (mov r8, r8)
 8000ce4:	200000b8 	.word	0x200000b8

08000ce8 <HAL_Delay>:
 8000ce8:	b570      	push	{r4, r5, r6, lr}
 8000cea:	0004      	movs	r4, r0
 8000cec:	f7ff fff6 	bl	8000cdc <HAL_GetTick>
 8000cf0:	0005      	movs	r5, r0
 8000cf2:	1c63      	adds	r3, r4, #1
 8000cf4:	d002      	beq.n	8000cfc <HAL_Delay+0x14>
 8000cf6:	4b04      	ldr	r3, [pc, #16]	; (8000d08 <HAL_Delay+0x20>)
 8000cf8:	781b      	ldrb	r3, [r3, #0]
 8000cfa:	18e4      	adds	r4, r4, r3
 8000cfc:	f7ff ffee 	bl	8000cdc <HAL_GetTick>
 8000d00:	1b40      	subs	r0, r0, r5
 8000d02:	42a0      	cmp	r0, r4
 8000d04:	d3fa      	bcc.n	8000cfc <HAL_Delay+0x14>
 8000d06:	bd70      	pop	{r4, r5, r6, pc}
 8000d08:	20000024 	.word	0x20000024

08000d0c <HAL_NVIC_SetPriority>:
 8000d0c:	b530      	push	{r4, r5, lr}
 8000d0e:	25ff      	movs	r5, #255	; 0xff
 8000d10:	2403      	movs	r4, #3
 8000d12:	002a      	movs	r2, r5
 8000d14:	b2c3      	uxtb	r3, r0
 8000d16:	401c      	ands	r4, r3
 8000d18:	00e4      	lsls	r4, r4, #3
 8000d1a:	40a2      	lsls	r2, r4
 8000d1c:	0189      	lsls	r1, r1, #6
 8000d1e:	4029      	ands	r1, r5
 8000d20:	43d2      	mvns	r2, r2
 8000d22:	40a1      	lsls	r1, r4
 8000d24:	2800      	cmp	r0, #0
 8000d26:	db0a      	blt.n	8000d3e <HAL_NVIC_SetPriority+0x32>
 8000d28:	24c0      	movs	r4, #192	; 0xc0
 8000d2a:	4b0b      	ldr	r3, [pc, #44]	; (8000d58 <HAL_NVIC_SetPriority+0x4c>)
 8000d2c:	0880      	lsrs	r0, r0, #2
 8000d2e:	0080      	lsls	r0, r0, #2
 8000d30:	18c0      	adds	r0, r0, r3
 8000d32:	00a4      	lsls	r4, r4, #2
 8000d34:	5903      	ldr	r3, [r0, r4]
 8000d36:	401a      	ands	r2, r3
 8000d38:	4311      	orrs	r1, r2
 8000d3a:	5101      	str	r1, [r0, r4]
 8000d3c:	bd30      	pop	{r4, r5, pc}
 8000d3e:	200f      	movs	r0, #15
 8000d40:	4003      	ands	r3, r0
 8000d42:	3b08      	subs	r3, #8
 8000d44:	4805      	ldr	r0, [pc, #20]	; (8000d5c <HAL_NVIC_SetPriority+0x50>)
 8000d46:	089b      	lsrs	r3, r3, #2
 8000d48:	009b      	lsls	r3, r3, #2
 8000d4a:	181b      	adds	r3, r3, r0
 8000d4c:	69d8      	ldr	r0, [r3, #28]
 8000d4e:	4002      	ands	r2, r0
 8000d50:	4311      	orrs	r1, r2
 8000d52:	61d9      	str	r1, [r3, #28]
 8000d54:	e7f2      	b.n	8000d3c <HAL_NVIC_SetPriority+0x30>
 8000d56:	46c0      	nop			; (mov r8, r8)
 8000d58:	e000e100 	.word	0xe000e100
 8000d5c:	e000ed00 	.word	0xe000ed00

08000d60 <HAL_SYSTICK_Config>:
 8000d60:	4a09      	ldr	r2, [pc, #36]	; (8000d88 <HAL_SYSTICK_Config+0x28>)
 8000d62:	1e43      	subs	r3, r0, #1
 8000d64:	2001      	movs	r0, #1
 8000d66:	4293      	cmp	r3, r2
 8000d68:	d80d      	bhi.n	8000d86 <HAL_SYSTICK_Config+0x26>
 8000d6a:	21c0      	movs	r1, #192	; 0xc0
 8000d6c:	4a07      	ldr	r2, [pc, #28]	; (8000d8c <HAL_SYSTICK_Config+0x2c>)
 8000d6e:	4808      	ldr	r0, [pc, #32]	; (8000d90 <HAL_SYSTICK_Config+0x30>)
 8000d70:	6053      	str	r3, [r2, #4]
 8000d72:	6a03      	ldr	r3, [r0, #32]
 8000d74:	0609      	lsls	r1, r1, #24
 8000d76:	021b      	lsls	r3, r3, #8
 8000d78:	0a1b      	lsrs	r3, r3, #8
 8000d7a:	430b      	orrs	r3, r1
 8000d7c:	6203      	str	r3, [r0, #32]
 8000d7e:	2000      	movs	r0, #0
 8000d80:	2307      	movs	r3, #7
 8000d82:	6090      	str	r0, [r2, #8]
 8000d84:	6013      	str	r3, [r2, #0]
 8000d86:	4770      	bx	lr
 8000d88:	00ffffff 	.word	0x00ffffff
 8000d8c:	e000e010 	.word	0xe000e010
 8000d90:	e000ed00 	.word	0xe000ed00

08000d94 <HAL_GPIO_Init>:
 8000d94:	b5f0      	push	{r4, r5, r6, r7, lr}
 8000d96:	680b      	ldr	r3, [r1, #0]
 8000d98:	b087      	sub	sp, #28
 8000d9a:	9303      	str	r3, [sp, #12]
 8000d9c:	2300      	movs	r3, #0
 8000d9e:	9a03      	ldr	r2, [sp, #12]
 8000da0:	40da      	lsrs	r2, r3
 8000da2:	d101      	bne.n	8000da8 <HAL_GPIO_Init+0x14>
 8000da4:	b007      	add	sp, #28
 8000da6:	bdf0      	pop	{r4, r5, r6, r7, pc}
 8000da8:	2201      	movs	r2, #1
 8000daa:	409a      	lsls	r2, r3
 8000dac:	4694      	mov	ip, r2
 8000dae:	4664      	mov	r4, ip
 8000db0:	9a03      	ldr	r2, [sp, #12]
 8000db2:	4022      	ands	r2, r4
 8000db4:	9201      	str	r2, [sp, #4]
 8000db6:	d100      	bne.n	8000dba <HAL_GPIO_Init+0x26>
 8000db8:	e092      	b.n	8000ee0 <HAL_GPIO_Init+0x14c>
 8000dba:	2503      	movs	r5, #3
 8000dbc:	684a      	ldr	r2, [r1, #4]
 8000dbe:	005e      	lsls	r6, r3, #1
 8000dc0:	0017      	movs	r7, r2
 8000dc2:	9200      	str	r2, [sp, #0]
 8000dc4:	40b5      	lsls	r5, r6
 8000dc6:	2210      	movs	r2, #16
 8000dc8:	4397      	bics	r7, r2
 8000dca:	43ea      	mvns	r2, r5
 8000dcc:	9202      	str	r2, [sp, #8]
 8000dce:	1e7a      	subs	r2, r7, #1
 8000dd0:	2a01      	cmp	r2, #1
 8000dd2:	d810      	bhi.n	8000df6 <HAL_GPIO_Init+0x62>
 8000dd4:	6884      	ldr	r4, [r0, #8]
 8000dd6:	9a02      	ldr	r2, [sp, #8]
 8000dd8:	2501      	movs	r5, #1
 8000dda:	4014      	ands	r4, r2
 8000ddc:	68ca      	ldr	r2, [r1, #12]
 8000dde:	40b2      	lsls	r2, r6
 8000de0:	4322      	orrs	r2, r4
 8000de2:	6082      	str	r2, [r0, #8]
 8000de4:	4662      	mov	r2, ip
 8000de6:	6844      	ldr	r4, [r0, #4]
 8000de8:	4394      	bics	r4, r2
 8000dea:	9a00      	ldr	r2, [sp, #0]
 8000dec:	0912      	lsrs	r2, r2, #4
 8000dee:	402a      	ands	r2, r5
 8000df0:	409a      	lsls	r2, r3
 8000df2:	4322      	orrs	r2, r4
 8000df4:	6042      	str	r2, [r0, #4]
 8000df6:	68c4      	ldr	r4, [r0, #12]
 8000df8:	9a02      	ldr	r2, [sp, #8]
 8000dfa:	4014      	ands	r4, r2
 8000dfc:	688a      	ldr	r2, [r1, #8]
 8000dfe:	40b2      	lsls	r2, r6
 8000e00:	4322      	orrs	r2, r4
 8000e02:	60c2      	str	r2, [r0, #12]
 8000e04:	2f02      	cmp	r7, #2
 8000e06:	d10d      	bne.n	8000e24 <HAL_GPIO_Init+0x90>
 8000e08:	2407      	movs	r4, #7
 8000e0a:	250f      	movs	r5, #15
 8000e0c:	401c      	ands	r4, r3
 8000e0e:	00a4      	lsls	r4, r4, #2
 8000e10:	40a5      	lsls	r5, r4
 8000e12:	08da      	lsrs	r2, r3, #3
 8000e14:	0092      	lsls	r2, r2, #2
 8000e16:	1882      	adds	r2, r0, r2
 8000e18:	6a17      	ldr	r7, [r2, #32]
 8000e1a:	43af      	bics	r7, r5
 8000e1c:	690d      	ldr	r5, [r1, #16]
 8000e1e:	40a5      	lsls	r5, r4
 8000e20:	432f      	orrs	r7, r5
 8000e22:	6217      	str	r7, [r2, #32]
 8000e24:	2403      	movs	r4, #3
 8000e26:	6802      	ldr	r2, [r0, #0]
 8000e28:	9d02      	ldr	r5, [sp, #8]
 8000e2a:	4015      	ands	r5, r2
 8000e2c:	9a00      	ldr	r2, [sp, #0]
 8000e2e:	4022      	ands	r2, r4
 8000e30:	40b2      	lsls	r2, r6
 8000e32:	2480      	movs	r4, #128	; 0x80
 8000e34:	4315      	orrs	r5, r2
 8000e36:	9a00      	ldr	r2, [sp, #0]
 8000e38:	0564      	lsls	r4, r4, #21
 8000e3a:	6005      	str	r5, [r0, #0]
 8000e3c:	4222      	tst	r2, r4
 8000e3e:	d04f      	beq.n	8000ee0 <HAL_GPIO_Init+0x14c>
 8000e40:	2501      	movs	r5, #1
 8000e42:	270f      	movs	r7, #15
 8000e44:	4a27      	ldr	r2, [pc, #156]	; (8000ee4 <HAL_GPIO_Init+0x150>)
 8000e46:	6994      	ldr	r4, [r2, #24]
 8000e48:	432c      	orrs	r4, r5
 8000e4a:	6194      	str	r4, [r2, #24]
 8000e4c:	6992      	ldr	r2, [r2, #24]
 8000e4e:	089c      	lsrs	r4, r3, #2
 8000e50:	402a      	ands	r2, r5
 8000e52:	3502      	adds	r5, #2
 8000e54:	401d      	ands	r5, r3
 8000e56:	00ad      	lsls	r5, r5, #2
 8000e58:	40af      	lsls	r7, r5
 8000e5a:	9205      	str	r2, [sp, #20]
 8000e5c:	9a05      	ldr	r2, [sp, #20]
 8000e5e:	4a22      	ldr	r2, [pc, #136]	; (8000ee8 <HAL_GPIO_Init+0x154>)
 8000e60:	00a4      	lsls	r4, r4, #2
 8000e62:	18a4      	adds	r4, r4, r2
 8000e64:	68a6      	ldr	r6, [r4, #8]
 8000e66:	2200      	movs	r2, #0
 8000e68:	43be      	bics	r6, r7
 8000e6a:	2790      	movs	r7, #144	; 0x90
 8000e6c:	05ff      	lsls	r7, r7, #23
 8000e6e:	42b8      	cmp	r0, r7
 8000e70:	d00c      	beq.n	8000e8c <HAL_GPIO_Init+0xf8>
 8000e72:	4f1e      	ldr	r7, [pc, #120]	; (8000eec <HAL_GPIO_Init+0x158>)
 8000e74:	3201      	adds	r2, #1
 8000e76:	42b8      	cmp	r0, r7
 8000e78:	d008      	beq.n	8000e8c <HAL_GPIO_Init+0xf8>
 8000e7a:	4f1d      	ldr	r7, [pc, #116]	; (8000ef0 <HAL_GPIO_Init+0x15c>)
 8000e7c:	3201      	adds	r2, #1
 8000e7e:	42b8      	cmp	r0, r7
 8000e80:	d004      	beq.n	8000e8c <HAL_GPIO_Init+0xf8>
 8000e82:	4f1c      	ldr	r7, [pc, #112]	; (8000ef4 <HAL_GPIO_Init+0x160>)
 8000e84:	3203      	adds	r2, #3
 8000e86:	42b8      	cmp	r0, r7
 8000e88:	d100      	bne.n	8000e8c <HAL_GPIO_Init+0xf8>
 8000e8a:	3a02      	subs	r2, #2
 8000e8c:	40aa      	lsls	r2, r5
 8000e8e:	4332      	orrs	r2, r6
 8000e90:	60a2      	str	r2, [r4, #8]
 8000e92:	4a19      	ldr	r2, [pc, #100]	; (8000ef8 <HAL_GPIO_Init+0x164>)
 8000e94:	9c01      	ldr	r4, [sp, #4]
 8000e96:	6816      	ldr	r6, [r2, #0]
 8000e98:	9d01      	ldr	r5, [sp, #4]
 8000e9a:	9f00      	ldr	r7, [sp, #0]
 8000e9c:	43e4      	mvns	r4, r4
 8000e9e:	4335      	orrs	r5, r6
 8000ea0:	03ff      	lsls	r7, r7, #15
 8000ea2:	d401      	bmi.n	8000ea8 <HAL_GPIO_Init+0x114>
 8000ea4:	0035      	movs	r5, r6
 8000ea6:	4025      	ands	r5, r4
 8000ea8:	6015      	str	r5, [r2, #0]
 8000eaa:	6856      	ldr	r6, [r2, #4]
 8000eac:	9d01      	ldr	r5, [sp, #4]
 8000eae:	9f00      	ldr	r7, [sp, #0]
 8000eb0:	4335      	orrs	r5, r6
 8000eb2:	03bf      	lsls	r7, r7, #14
 8000eb4:	d401      	bmi.n	8000eba <HAL_GPIO_Init+0x126>
 8000eb6:	0035      	movs	r5, r6
 8000eb8:	4025      	ands	r5, r4
 8000eba:	6055      	str	r5, [r2, #4]
 8000ebc:	6896      	ldr	r6, [r2, #8]
 8000ebe:	9d01      	ldr	r5, [sp, #4]
 8000ec0:	9f00      	ldr	r7, [sp, #0]
 8000ec2:	4335      	orrs	r5, r6
 8000ec4:	02ff      	lsls	r7, r7, #11
 8000ec6:	d401      	bmi.n	8000ecc <HAL_GPIO_Init+0x138>
 8000ec8:	0035      	movs	r5, r6
 8000eca:	4025      	ands	r5, r4
 8000ecc:	6095      	str	r5, [r2, #8]
 8000ece:	68d5      	ldr	r5, [r2, #12]
 8000ed0:	9e01      	ldr	r6, [sp, #4]
 8000ed2:	9f00      	ldr	r7, [sp, #0]
 8000ed4:	432e      	orrs	r6, r5
 8000ed6:	02bf      	lsls	r7, r7, #10
 8000ed8:	d401      	bmi.n	8000ede <HAL_GPIO_Init+0x14a>
 8000eda:	4025      	ands	r5, r4
 8000edc:	002e      	movs	r6, r5
 8000ede:	60d6      	str	r6, [r2, #12]
 8000ee0:	3301      	adds	r3, #1
 8000ee2:	e75c      	b.n	8000d9e <HAL_GPIO_Init+0xa>
 8000ee4:	40021000 	.word	0x40021000
 8000ee8:	40010000 	.word	0x40010000
 8000eec:	48000400 	.word	0x48000400
 8000ef0:	48000800 	.word	0x48000800
 8000ef4:	48000c00 	.word	0x48000c00
 8000ef8:	40010400 	.word	0x40010400

08000efc <HAL_GPIO_WritePin>:
 8000efc:	2a00      	cmp	r2, #0
 8000efe:	d001      	beq.n	8000f04 <HAL_GPIO_WritePin+0x8>
 8000f00:	6181      	str	r1, [r0, #24]
 8000f02:	4770      	bx	lr
 8000f04:	6281      	str	r1, [r0, #40]	; 0x28
 8000f06:	e7fc      	b.n	8000f02 <HAL_GPIO_WritePin+0x6>

08000f08 <HAL_RCC_OscConfig>:
 8000f08:	b5f0      	push	{r4, r5, r6, r7, lr}
 8000f0a:	0004      	movs	r4, r0
 8000f0c:	b085      	sub	sp, #20
 8000f0e:	2800      	cmp	r0, #0
 8000f10:	d102      	bne.n	8000f18 <HAL_RCC_OscConfig+0x10>
 8000f12:	2001      	movs	r0, #1
 8000f14:	b005      	add	sp, #20
 8000f16:	bdf0      	pop	{r4, r5, r6, r7, pc}
 8000f18:	6803      	ldr	r3, [r0, #0]
 8000f1a:	07db      	lsls	r3, r3, #31
 8000f1c:	d42e      	bmi.n	8000f7c <HAL_RCC_OscConfig+0x74>
 8000f1e:	6823      	ldr	r3, [r4, #0]
 8000f20:	079b      	lsls	r3, r3, #30
 8000f22:	d47e      	bmi.n	8001022 <HAL_RCC_OscConfig+0x11a>
 8000f24:	6823      	ldr	r3, [r4, #0]
 8000f26:	071b      	lsls	r3, r3, #28
 8000f28:	d500      	bpl.n	8000f2c <HAL_RCC_OscConfig+0x24>
 8000f2a:	e0ba      	b.n	80010a2 <HAL_RCC_OscConfig+0x19a>
 8000f2c:	6823      	ldr	r3, [r4, #0]
 8000f2e:	075b      	lsls	r3, r3, #29
 8000f30:	d500      	bpl.n	8000f34 <HAL_RCC_OscConfig+0x2c>
 8000f32:	e0dd      	b.n	80010f0 <HAL_RCC_OscConfig+0x1e8>
 8000f34:	6823      	ldr	r3, [r4, #0]
 8000f36:	06db      	lsls	r3, r3, #27
 8000f38:	d51a      	bpl.n	8000f70 <HAL_RCC_OscConfig+0x68>
 8000f3a:	6962      	ldr	r2, [r4, #20]
 8000f3c:	4db4      	ldr	r5, [pc, #720]	; (8001210 <HAL_RCC_OscConfig+0x308>)
 8000f3e:	2304      	movs	r3, #4
 8000f40:	2a01      	cmp	r2, #1
 8000f42:	d000      	beq.n	8000f46 <HAL_RCC_OscConfig+0x3e>
 8000f44:	e149      	b.n	80011da <HAL_RCC_OscConfig+0x2d2>
 8000f46:	6b69      	ldr	r1, [r5, #52]	; 0x34
 8000f48:	2602      	movs	r6, #2
 8000f4a:	430b      	orrs	r3, r1
 8000f4c:	636b      	str	r3, [r5, #52]	; 0x34
 8000f4e:	6b6b      	ldr	r3, [r5, #52]	; 0x34
 8000f50:	431a      	orrs	r2, r3
 8000f52:	636a      	str	r2, [r5, #52]	; 0x34
 8000f54:	f7ff fec2 	bl	8000cdc <HAL_GetTick>
 8000f58:	0007      	movs	r7, r0
 8000f5a:	6b6b      	ldr	r3, [r5, #52]	; 0x34
 8000f5c:	4233      	tst	r3, r6
 8000f5e:	d100      	bne.n	8000f62 <HAL_RCC_OscConfig+0x5a>
 8000f60:	e134      	b.n	80011cc <HAL_RCC_OscConfig+0x2c4>
 8000f62:	21f8      	movs	r1, #248	; 0xf8
 8000f64:	6b6a      	ldr	r2, [r5, #52]	; 0x34
 8000f66:	69a3      	ldr	r3, [r4, #24]
 8000f68:	438a      	bics	r2, r1
 8000f6a:	00db      	lsls	r3, r3, #3
 8000f6c:	4313      	orrs	r3, r2
 8000f6e:	636b      	str	r3, [r5, #52]	; 0x34
 8000f70:	6a23      	ldr	r3, [r4, #32]
 8000f72:	2b00      	cmp	r3, #0
 8000f74:	d000      	beq.n	8000f78 <HAL_RCC_OscConfig+0x70>
 8000f76:	e157      	b.n	8001228 <HAL_RCC_OscConfig+0x320>
 8000f78:	2000      	movs	r0, #0
 8000f7a:	e7cb      	b.n	8000f14 <HAL_RCC_OscConfig+0xc>
 8000f7c:	210c      	movs	r1, #12
 8000f7e:	4da4      	ldr	r5, [pc, #656]	; (8001210 <HAL_RCC_OscConfig+0x308>)
 8000f80:	686a      	ldr	r2, [r5, #4]
 8000f82:	400a      	ands	r2, r1
 8000f84:	2a04      	cmp	r2, #4
 8000f86:	d006      	beq.n	8000f96 <HAL_RCC_OscConfig+0x8e>
 8000f88:	686b      	ldr	r3, [r5, #4]
 8000f8a:	400b      	ands	r3, r1
 8000f8c:	2b08      	cmp	r3, #8
 8000f8e:	d109      	bne.n	8000fa4 <HAL_RCC_OscConfig+0x9c>
 8000f90:	686b      	ldr	r3, [r5, #4]
 8000f92:	03db      	lsls	r3, r3, #15
 8000f94:	d506      	bpl.n	8000fa4 <HAL_RCC_OscConfig+0x9c>
 8000f96:	682b      	ldr	r3, [r5, #0]
 8000f98:	039b      	lsls	r3, r3, #14
 8000f9a:	d5c0      	bpl.n	8000f1e <HAL_RCC_OscConfig+0x16>
 8000f9c:	6863      	ldr	r3, [r4, #4]
 8000f9e:	2b00      	cmp	r3, #0
 8000fa0:	d1bd      	bne.n	8000f1e <HAL_RCC_OscConfig+0x16>
 8000fa2:	e7b6      	b.n	8000f12 <HAL_RCC_OscConfig+0xa>
 8000fa4:	6863      	ldr	r3, [r4, #4]
 8000fa6:	2b01      	cmp	r3, #1
 8000fa8:	d113      	bne.n	8000fd2 <HAL_RCC_OscConfig+0xca>
 8000faa:	2380      	movs	r3, #128	; 0x80
 8000fac:	682a      	ldr	r2, [r5, #0]
 8000fae:	025b      	lsls	r3, r3, #9
 8000fb0:	4313      	orrs	r3, r2
 8000fb2:	602b      	str	r3, [r5, #0]
 8000fb4:	f7ff fe92 	bl	8000cdc <HAL_GetTick>
 8000fb8:	2680      	movs	r6, #128	; 0x80
 8000fba:	0007      	movs	r7, r0
 8000fbc:	02b6      	lsls	r6, r6, #10
 8000fbe:	682b      	ldr	r3, [r5, #0]
 8000fc0:	4233      	tst	r3, r6
 8000fc2:	d1ac      	bne.n	8000f1e <HAL_RCC_OscConfig+0x16>
 8000fc4:	f7ff fe8a 	bl	8000cdc <HAL_GetTick>
 8000fc8:	1bc0      	subs	r0, r0, r7
 8000fca:	2864      	cmp	r0, #100	; 0x64
 8000fcc:	d9f7      	bls.n	8000fbe <HAL_RCC_OscConfig+0xb6>
 8000fce:	2003      	movs	r0, #3
 8000fd0:	e7a0      	b.n	8000f14 <HAL_RCC_OscConfig+0xc>
 8000fd2:	2b00      	cmp	r3, #0
 8000fd4:	d115      	bne.n	8001002 <HAL_RCC_OscConfig+0xfa>
 8000fd6:	682b      	ldr	r3, [r5, #0]
 8000fd8:	4a8e      	ldr	r2, [pc, #568]	; (8001214 <HAL_RCC_OscConfig+0x30c>)
 8000fda:	2680      	movs	r6, #128	; 0x80
 8000fdc:	4013      	ands	r3, r2
 8000fde:	602b      	str	r3, [r5, #0]
 8000fe0:	682b      	ldr	r3, [r5, #0]
 8000fe2:	4a8d      	ldr	r2, [pc, #564]	; (8001218 <HAL_RCC_OscConfig+0x310>)
 8000fe4:	02b6      	lsls	r6, r6, #10
 8000fe6:	4013      	ands	r3, r2
 8000fe8:	602b      	str	r3, [r5, #0]
 8000fea:	f7ff fe77 	bl	8000cdc <HAL_GetTick>
 8000fee:	0007      	movs	r7, r0
 8000ff0:	682b      	ldr	r3, [r5, #0]
 8000ff2:	4233      	tst	r3, r6
 8000ff4:	d093      	beq.n	8000f1e <HAL_RCC_OscConfig+0x16>
 8000ff6:	f7ff fe71 	bl	8000cdc <HAL_GetTick>
 8000ffa:	1bc0      	subs	r0, r0, r7
 8000ffc:	2864      	cmp	r0, #100	; 0x64
 8000ffe:	d9f7      	bls.n	8000ff0 <HAL_RCC_OscConfig+0xe8>
 8001000:	e7e5      	b.n	8000fce <HAL_RCC_OscConfig+0xc6>
 8001002:	2b05      	cmp	r3, #5
 8001004:	d105      	bne.n	8001012 <HAL_RCC_OscConfig+0x10a>
 8001006:	2380      	movs	r3, #128	; 0x80
 8001008:	682a      	ldr	r2, [r5, #0]
 800100a:	02db      	lsls	r3, r3, #11
 800100c:	4313      	orrs	r3, r2
 800100e:	602b      	str	r3, [r5, #0]
 8001010:	e7cb      	b.n	8000faa <HAL_RCC_OscConfig+0xa2>
 8001012:	682b      	ldr	r3, [r5, #0]
 8001014:	4a7f      	ldr	r2, [pc, #508]	; (8001214 <HAL_RCC_OscConfig+0x30c>)
 8001016:	4013      	ands	r3, r2
 8001018:	602b      	str	r3, [r5, #0]
 800101a:	682b      	ldr	r3, [r5, #0]
 800101c:	4a7e      	ldr	r2, [pc, #504]	; (8001218 <HAL_RCC_OscConfig+0x310>)
 800101e:	4013      	ands	r3, r2
 8001020:	e7c7      	b.n	8000fb2 <HAL_RCC_OscConfig+0xaa>
 8001022:	220c      	movs	r2, #12
 8001024:	4d7a      	ldr	r5, [pc, #488]	; (8001210 <HAL_RCC_OscConfig+0x308>)
 8001026:	686b      	ldr	r3, [r5, #4]
 8001028:	4213      	tst	r3, r2
 800102a:	d006      	beq.n	800103a <HAL_RCC_OscConfig+0x132>
 800102c:	686b      	ldr	r3, [r5, #4]
 800102e:	4013      	ands	r3, r2
 8001030:	2b08      	cmp	r3, #8
 8001032:	d111      	bne.n	8001058 <HAL_RCC_OscConfig+0x150>
 8001034:	686b      	ldr	r3, [r5, #4]
 8001036:	03db      	lsls	r3, r3, #15
 8001038:	d40e      	bmi.n	8001058 <HAL_RCC_OscConfig+0x150>
 800103a:	682b      	ldr	r3, [r5, #0]
 800103c:	079b      	lsls	r3, r3, #30
 800103e:	d503      	bpl.n	8001048 <HAL_RCC_OscConfig+0x140>
 8001040:	68e3      	ldr	r3, [r4, #12]
 8001042:	2b01      	cmp	r3, #1
 8001044:	d000      	beq.n	8001048 <HAL_RCC_OscConfig+0x140>
 8001046:	e764      	b.n	8000f12 <HAL_RCC_OscConfig+0xa>
 8001048:	21f8      	movs	r1, #248	; 0xf8
 800104a:	682a      	ldr	r2, [r5, #0]
 800104c:	6923      	ldr	r3, [r4, #16]
 800104e:	438a      	bics	r2, r1
 8001050:	00db      	lsls	r3, r3, #3
 8001052:	4313      	orrs	r3, r2
 8001054:	602b      	str	r3, [r5, #0]
 8001056:	e765      	b.n	8000f24 <HAL_RCC_OscConfig+0x1c>
 8001058:	68e2      	ldr	r2, [r4, #12]
 800105a:	2301      	movs	r3, #1
 800105c:	2a00      	cmp	r2, #0
 800105e:	d00f      	beq.n	8001080 <HAL_RCC_OscConfig+0x178>
 8001060:	682a      	ldr	r2, [r5, #0]
 8001062:	2602      	movs	r6, #2
 8001064:	4313      	orrs	r3, r2
 8001066:	602b      	str	r3, [r5, #0]
 8001068:	f7ff fe38 	bl	8000cdc <HAL_GetTick>
 800106c:	0007      	movs	r7, r0
 800106e:	682b      	ldr	r3, [r5, #0]
 8001070:	4233      	tst	r3, r6
 8001072:	d1e9      	bne.n	8001048 <HAL_RCC_OscConfig+0x140>
 8001074:	f7ff fe32 	bl	8000cdc <HAL_GetTick>
 8001078:	1bc0      	subs	r0, r0, r7
 800107a:	2802      	cmp	r0, #2
 800107c:	d9f7      	bls.n	800106e <HAL_RCC_OscConfig+0x166>
 800107e:	e7a6      	b.n	8000fce <HAL_RCC_OscConfig+0xc6>
 8001080:	682a      	ldr	r2, [r5, #0]
 8001082:	2602      	movs	r6, #2
 8001084:	439a      	bics	r2, r3
 8001086:	602a      	str	r2, [r5, #0]
 8001088:	f7ff fe28 	bl	8000cdc <HAL_GetTick>
 800108c:	0007      	movs	r7, r0
 800108e:	682b      	ldr	r3, [r5, #0]
 8001090:	4233      	tst	r3, r6
 8001092:	d100      	bne.n	8001096 <HAL_RCC_OscConfig+0x18e>
 8001094:	e746      	b.n	8000f24 <HAL_RCC_OscConfig+0x1c>
 8001096:	f7ff fe21 	bl	8000cdc <HAL_GetTick>
 800109a:	1bc0      	subs	r0, r0, r7
 800109c:	2802      	cmp	r0, #2
 800109e:	d9f6      	bls.n	800108e <HAL_RCC_OscConfig+0x186>
 80010a0:	e795      	b.n	8000fce <HAL_RCC_OscConfig+0xc6>
 80010a2:	69e2      	ldr	r2, [r4, #28]
 80010a4:	2301      	movs	r3, #1
 80010a6:	4d5a      	ldr	r5, [pc, #360]	; (8001210 <HAL_RCC_OscConfig+0x308>)
 80010a8:	2a00      	cmp	r2, #0
 80010aa:	d010      	beq.n	80010ce <HAL_RCC_OscConfig+0x1c6>
 80010ac:	6a6a      	ldr	r2, [r5, #36]	; 0x24
 80010ae:	2602      	movs	r6, #2
 80010b0:	4313      	orrs	r3, r2
 80010b2:	626b      	str	r3, [r5, #36]	; 0x24
 80010b4:	f7ff fe12 	bl	8000cdc <HAL_GetTick>
 80010b8:	0007      	movs	r7, r0
 80010ba:	6a6b      	ldr	r3, [r5, #36]	; 0x24
 80010bc:	4233      	tst	r3, r6
 80010be:	d000      	beq.n	80010c2 <HAL_RCC_OscConfig+0x1ba>
 80010c0:	e734      	b.n	8000f2c <HAL_RCC_OscConfig+0x24>
 80010c2:	f7ff fe0b 	bl	8000cdc <HAL_GetTick>
 80010c6:	1bc0      	subs	r0, r0, r7
 80010c8:	2802      	cmp	r0, #2
 80010ca:	d9f6      	bls.n	80010ba <HAL_RCC_OscConfig+0x1b2>
 80010cc:	e77f      	b.n	8000fce <HAL_RCC_OscConfig+0xc6>
 80010ce:	6a6a      	ldr	r2, [r5, #36]	; 0x24
 80010d0:	2602      	movs	r6, #2
 80010d2:	439a      	bics	r2, r3
 80010d4:	626a      	str	r2, [r5, #36]	; 0x24
 80010d6:	f7ff fe01 	bl	8000cdc <HAL_GetTick>
 80010da:	0007      	movs	r7, r0
 80010dc:	6a6b      	ldr	r3, [r5, #36]	; 0x24
 80010de:	4233      	tst	r3, r6
 80010e0:	d100      	bne.n	80010e4 <HAL_RCC_OscConfig+0x1dc>
 80010e2:	e723      	b.n	8000f2c <HAL_RCC_OscConfig+0x24>
 80010e4:	f7ff fdfa 	bl	8000cdc <HAL_GetTick>
 80010e8:	1bc0      	subs	r0, r0, r7
 80010ea:	2802      	cmp	r0, #2
 80010ec:	d9f6      	bls.n	80010dc <HAL_RCC_OscConfig+0x1d4>
 80010ee:	e76e      	b.n	8000fce <HAL_RCC_OscConfig+0xc6>
 80010f0:	2280      	movs	r2, #128	; 0x80
 80010f2:	2100      	movs	r1, #0
 80010f4:	4d46      	ldr	r5, [pc, #280]	; (8001210 <HAL_RCC_OscConfig+0x308>)
 80010f6:	0552      	lsls	r2, r2, #21
 80010f8:	69eb      	ldr	r3, [r5, #28]
 80010fa:	9100      	str	r1, [sp, #0]
 80010fc:	4213      	tst	r3, r2
 80010fe:	d108      	bne.n	8001112 <HAL_RCC_OscConfig+0x20a>
 8001100:	69eb      	ldr	r3, [r5, #28]
 8001102:	4313      	orrs	r3, r2
 8001104:	61eb      	str	r3, [r5, #28]
 8001106:	69eb      	ldr	r3, [r5, #28]
 8001108:	4013      	ands	r3, r2
 800110a:	9303      	str	r3, [sp, #12]
 800110c:	9b03      	ldr	r3, [sp, #12]
 800110e:	2301      	movs	r3, #1
 8001110:	9300      	str	r3, [sp, #0]
 8001112:	2780      	movs	r7, #128	; 0x80
 8001114:	4e41      	ldr	r6, [pc, #260]	; (800121c <HAL_RCC_OscConfig+0x314>)
 8001116:	007f      	lsls	r7, r7, #1
 8001118:	6833      	ldr	r3, [r6, #0]
 800111a:	423b      	tst	r3, r7
 800111c:	d006      	beq.n	800112c <HAL_RCC_OscConfig+0x224>
 800111e:	68a3      	ldr	r3, [r4, #8]
 8001120:	2b01      	cmp	r3, #1
 8001122:	d113      	bne.n	800114c <HAL_RCC_OscConfig+0x244>
 8001124:	6a2a      	ldr	r2, [r5, #32]
 8001126:	4313      	orrs	r3, r2
 8001128:	622b      	str	r3, [r5, #32]
 800112a:	e030      	b.n	800118e <HAL_RCC_OscConfig+0x286>
 800112c:	6833      	ldr	r3, [r6, #0]
 800112e:	433b      	orrs	r3, r7
 8001130:	6033      	str	r3, [r6, #0]
 8001132:	f7ff fdd3 	bl	8000cdc <HAL_GetTick>
 8001136:	9001      	str	r0, [sp, #4]
 8001138:	6833      	ldr	r3, [r6, #0]
 800113a:	423b      	tst	r3, r7
 800113c:	d1ef      	bne.n	800111e <HAL_RCC_OscConfig+0x216>
 800113e:	f7ff fdcd 	bl	8000cdc <HAL_GetTick>
 8001142:	9b01      	ldr	r3, [sp, #4]
 8001144:	1ac0      	subs	r0, r0, r3
 8001146:	2864      	cmp	r0, #100	; 0x64
 8001148:	d9f6      	bls.n	8001138 <HAL_RCC_OscConfig+0x230>
 800114a:	e740      	b.n	8000fce <HAL_RCC_OscConfig+0xc6>
 800114c:	2201      	movs	r2, #1
 800114e:	2b00      	cmp	r3, #0
 8001150:	d114      	bne.n	800117c <HAL_RCC_OscConfig+0x274>
 8001152:	6a2b      	ldr	r3, [r5, #32]
 8001154:	2702      	movs	r7, #2
 8001156:	4393      	bics	r3, r2
 8001158:	622b      	str	r3, [r5, #32]
 800115a:	6a2b      	ldr	r3, [r5, #32]
 800115c:	3203      	adds	r2, #3
 800115e:	4393      	bics	r3, r2
 8001160:	622b      	str	r3, [r5, #32]
 8001162:	f7ff fdbb 	bl	8000cdc <HAL_GetTick>
 8001166:	0006      	movs	r6, r0
 8001168:	6a2b      	ldr	r3, [r5, #32]
 800116a:	423b      	tst	r3, r7
 800116c:	d025      	beq.n	80011ba <HAL_RCC_OscConfig+0x2b2>
 800116e:	f7ff fdb5 	bl	8000cdc <HAL_GetTick>
 8001172:	4b2b      	ldr	r3, [pc, #172]	; (8001220 <HAL_RCC_OscConfig+0x318>)
 8001174:	1b80      	subs	r0, r0, r6
 8001176:	4298      	cmp	r0, r3
 8001178:	d9f6      	bls.n	8001168 <HAL_RCC_OscConfig+0x260>
 800117a:	e728      	b.n	8000fce <HAL_RCC_OscConfig+0xc6>
 800117c:	2b05      	cmp	r3, #5
 800117e:	d10b      	bne.n	8001198 <HAL_RCC_OscConfig+0x290>
 8001180:	6a29      	ldr	r1, [r5, #32]
 8001182:	3b01      	subs	r3, #1
 8001184:	430b      	orrs	r3, r1
 8001186:	622b      	str	r3, [r5, #32]
 8001188:	6a2b      	ldr	r3, [r5, #32]
 800118a:	431a      	orrs	r2, r3
 800118c:	622a      	str	r2, [r5, #32]
 800118e:	f7ff fda5 	bl	8000cdc <HAL_GetTick>
 8001192:	2702      	movs	r7, #2
 8001194:	0006      	movs	r6, r0
 8001196:	e00d      	b.n	80011b4 <HAL_RCC_OscConfig+0x2ac>
 8001198:	6a2b      	ldr	r3, [r5, #32]
 800119a:	4393      	bics	r3, r2
 800119c:	2204      	movs	r2, #4
 800119e:	622b      	str	r3, [r5, #32]
 80011a0:	6a2b      	ldr	r3, [r5, #32]
 80011a2:	4393      	bics	r3, r2
 80011a4:	e7c0      	b.n	8001128 <HAL_RCC_OscConfig+0x220>
 80011a6:	f7ff fd99 	bl	8000cdc <HAL_GetTick>
 80011aa:	4b1d      	ldr	r3, [pc, #116]	; (8001220 <HAL_RCC_OscConfig+0x318>)
 80011ac:	1b80      	subs	r0, r0, r6
 80011ae:	4298      	cmp	r0, r3
 80011b0:	d900      	bls.n	80011b4 <HAL_RCC_OscConfig+0x2ac>
 80011b2:	e70c      	b.n	8000fce <HAL_RCC_OscConfig+0xc6>
 80011b4:	6a2b      	ldr	r3, [r5, #32]
 80011b6:	423b      	tst	r3, r7
 80011b8:	d0f5      	beq.n	80011a6 <HAL_RCC_OscConfig+0x29e>
 80011ba:	9b00      	ldr	r3, [sp, #0]
 80011bc:	2b01      	cmp	r3, #1
 80011be:	d000      	beq.n	80011c2 <HAL_RCC_OscConfig+0x2ba>
 80011c0:	e6b8      	b.n	8000f34 <HAL_RCC_OscConfig+0x2c>
 80011c2:	69eb      	ldr	r3, [r5, #28]
 80011c4:	4a17      	ldr	r2, [pc, #92]	; (8001224 <HAL_RCC_OscConfig+0x31c>)
 80011c6:	4013      	ands	r3, r2
 80011c8:	61eb      	str	r3, [r5, #28]
 80011ca:	e6b3      	b.n	8000f34 <HAL_RCC_OscConfig+0x2c>
 80011cc:	f7ff fd86 	bl	8000cdc <HAL_GetTick>
 80011d0:	1bc0      	subs	r0, r0, r7
 80011d2:	2802      	cmp	r0, #2
 80011d4:	d800      	bhi.n	80011d8 <HAL_RCC_OscConfig+0x2d0>
 80011d6:	e6c0      	b.n	8000f5a <HAL_RCC_OscConfig+0x52>
 80011d8:	e6f9      	b.n	8000fce <HAL_RCC_OscConfig+0xc6>
 80011da:	3205      	adds	r2, #5
 80011dc:	d103      	bne.n	80011e6 <HAL_RCC_OscConfig+0x2de>
 80011de:	6b6a      	ldr	r2, [r5, #52]	; 0x34
 80011e0:	439a      	bics	r2, r3
 80011e2:	636a      	str	r2, [r5, #52]	; 0x34
 80011e4:	e6bd      	b.n	8000f62 <HAL_RCC_OscConfig+0x5a>
 80011e6:	6b6a      	ldr	r2, [r5, #52]	; 0x34
 80011e8:	2602      	movs	r6, #2
 80011ea:	4313      	orrs	r3, r2
 80011ec:	2201      	movs	r2, #1
 80011ee:	636b      	str	r3, [r5, #52]	; 0x34
 80011f0:	6b6b      	ldr	r3, [r5, #52]	; 0x34
 80011f2:	4393      	bics	r3, r2
 80011f4:	636b      	str	r3, [r5, #52]	; 0x34
 80011f6:	f7ff fd71 	bl	8000cdc <HAL_GetTick>
 80011fa:	0007      	movs	r7, r0
 80011fc:	6b6b      	ldr	r3, [r5, #52]	; 0x34
 80011fe:	4233      	tst	r3, r6
 8001200:	d100      	bne.n	8001204 <HAL_RCC_OscConfig+0x2fc>
 8001202:	e6b5      	b.n	8000f70 <HAL_RCC_OscConfig+0x68>
 8001204:	f7ff fd6a 	bl	8000cdc <HAL_GetTick>
 8001208:	1bc0      	subs	r0, r0, r7
 800120a:	2802      	cmp	r0, #2
 800120c:	d9f6      	bls.n	80011fc <HAL_RCC_OscConfig+0x2f4>
 800120e:	e6de      	b.n	8000fce <HAL_RCC_OscConfig+0xc6>
 8001210:	40021000 	.word	0x40021000
 8001214:	fffeffff 	.word	0xfffeffff
 8001218:	fffbffff 	.word	0xfffbffff
 800121c:	40007000 	.word	0x40007000
 8001220:	00001388 	.word	0x00001388
 8001224:	efffffff 	.word	0xefffffff
 8001228:	200c      	movs	r0, #12
 800122a:	4a35      	ldr	r2, [pc, #212]	; (8001300 <HAL_RCC_OscConfig+0x3f8>)
 800122c:	6851      	ldr	r1, [r2, #4]
 800122e:	0015      	movs	r5, r2
 8001230:	4001      	ands	r1, r0
 8001232:	2908      	cmp	r1, #8
 8001234:	d047      	beq.n	80012c6 <HAL_RCC_OscConfig+0x3be>
 8001236:	4a33      	ldr	r2, [pc, #204]	; (8001304 <HAL_RCC_OscConfig+0x3fc>)
 8001238:	2b02      	cmp	r3, #2
 800123a:	d132      	bne.n	80012a2 <HAL_RCC_OscConfig+0x39a>
 800123c:	682b      	ldr	r3, [r5, #0]
 800123e:	2680      	movs	r6, #128	; 0x80
 8001240:	4013      	ands	r3, r2
 8001242:	602b      	str	r3, [r5, #0]
 8001244:	f7ff fd4a 	bl	8000cdc <HAL_GetTick>
 8001248:	0007      	movs	r7, r0
 800124a:	04b6      	lsls	r6, r6, #18
 800124c:	682b      	ldr	r3, [r5, #0]
 800124e:	4233      	tst	r3, r6
 8001250:	d121      	bne.n	8001296 <HAL_RCC_OscConfig+0x38e>
 8001252:	220f      	movs	r2, #15
 8001254:	6aeb      	ldr	r3, [r5, #44]	; 0x2c
 8001256:	4393      	bics	r3, r2
 8001258:	6ae2      	ldr	r2, [r4, #44]	; 0x2c
 800125a:	4313      	orrs	r3, r2
 800125c:	62eb      	str	r3, [r5, #44]	; 0x2c
 800125e:	6a61      	ldr	r1, [r4, #36]	; 0x24
 8001260:	6aa3      	ldr	r3, [r4, #40]	; 0x28
 8001262:	686a      	ldr	r2, [r5, #4]
 8001264:	430b      	orrs	r3, r1
 8001266:	4928      	ldr	r1, [pc, #160]	; (8001308 <HAL_RCC_OscConfig+0x400>)
 8001268:	2480      	movs	r4, #128	; 0x80
 800126a:	400a      	ands	r2, r1
 800126c:	4313      	orrs	r3, r2
 800126e:	606b      	str	r3, [r5, #4]
 8001270:	2380      	movs	r3, #128	; 0x80
 8001272:	682a      	ldr	r2, [r5, #0]
 8001274:	045b      	lsls	r3, r3, #17
 8001276:	4313      	orrs	r3, r2
 8001278:	602b      	str	r3, [r5, #0]
 800127a:	f7ff fd2f 	bl	8000cdc <HAL_GetTick>
 800127e:	0006      	movs	r6, r0
 8001280:	04a4      	lsls	r4, r4, #18
 8001282:	682b      	ldr	r3, [r5, #0]
 8001284:	4223      	tst	r3, r4
 8001286:	d000      	beq.n	800128a <HAL_RCC_OscConfig+0x382>
 8001288:	e676      	b.n	8000f78 <HAL_RCC_OscConfig+0x70>
 800128a:	f7ff fd27 	bl	8000cdc <HAL_GetTick>
 800128e:	1b80      	subs	r0, r0, r6
 8001290:	2802      	cmp	r0, #2
 8001292:	d9f6      	bls.n	8001282 <HAL_RCC_OscConfig+0x37a>
 8001294:	e69b      	b.n	8000fce <HAL_RCC_OscConfig+0xc6>
 8001296:	f7ff fd21 	bl	8000cdc <HAL_GetTick>
 800129a:	1bc0      	subs	r0, r0, r7
 800129c:	2802      	cmp	r0, #2
 800129e:	d9d5      	bls.n	800124c <HAL_RCC_OscConfig+0x344>
 80012a0:	e695      	b.n	8000fce <HAL_RCC_OscConfig+0xc6>
 80012a2:	682b      	ldr	r3, [r5, #0]
 80012a4:	2480      	movs	r4, #128	; 0x80
 80012a6:	4013      	ands	r3, r2
 80012a8:	602b      	str	r3, [r5, #0]
 80012aa:	f7ff fd17 	bl	8000cdc <HAL_GetTick>
 80012ae:	0006      	movs	r6, r0
 80012b0:	04a4      	lsls	r4, r4, #18
 80012b2:	682b      	ldr	r3, [r5, #0]
 80012b4:	4223      	tst	r3, r4
 80012b6:	d100      	bne.n	80012ba <HAL_RCC_OscConfig+0x3b2>
 80012b8:	e65e      	b.n	8000f78 <HAL_RCC_OscConfig+0x70>
 80012ba:	f7ff fd0f 	bl	8000cdc <HAL_GetTick>
 80012be:	1b80      	subs	r0, r0, r6
 80012c0:	2802      	cmp	r0, #2
 80012c2:	d9f6      	bls.n	80012b2 <HAL_RCC_OscConfig+0x3aa>
 80012c4:	e683      	b.n	8000fce <HAL_RCC_OscConfig+0xc6>
 80012c6:	0018      	movs	r0, r3
 80012c8:	2b01      	cmp	r3, #1
 80012ca:	d100      	bne.n	80012ce <HAL_RCC_OscConfig+0x3c6>
 80012cc:	e622      	b.n	8000f14 <HAL_RCC_OscConfig+0xc>
 80012ce:	2180      	movs	r1, #128	; 0x80
 80012d0:	6853      	ldr	r3, [r2, #4]
 80012d2:	6a65      	ldr	r5, [r4, #36]	; 0x24
 80012d4:	0249      	lsls	r1, r1, #9
 80012d6:	6ad2      	ldr	r2, [r2, #44]	; 0x2c
 80012d8:	4019      	ands	r1, r3
 80012da:	2001      	movs	r0, #1
 80012dc:	42a9      	cmp	r1, r5
 80012de:	d000      	beq.n	80012e2 <HAL_RCC_OscConfig+0x3da>
 80012e0:	e618      	b.n	8000f14 <HAL_RCC_OscConfig+0xc>
 80012e2:	210f      	movs	r1, #15
 80012e4:	400a      	ands	r2, r1
 80012e6:	6ae1      	ldr	r1, [r4, #44]	; 0x2c
 80012e8:	428a      	cmp	r2, r1
 80012ea:	d000      	beq.n	80012ee <HAL_RCC_OscConfig+0x3e6>
 80012ec:	e612      	b.n	8000f14 <HAL_RCC_OscConfig+0xc>
 80012ee:	20f0      	movs	r0, #240	; 0xf0
 80012f0:	0380      	lsls	r0, r0, #14
 80012f2:	4003      	ands	r3, r0
 80012f4:	6aa0      	ldr	r0, [r4, #40]	; 0x28
 80012f6:	1a1b      	subs	r3, r3, r0
 80012f8:	1e58      	subs	r0, r3, #1
 80012fa:	4183      	sbcs	r3, r0
 80012fc:	b2d8      	uxtb	r0, r3
 80012fe:	e609      	b.n	8000f14 <HAL_RCC_OscConfig+0xc>
 8001300:	40021000 	.word	0x40021000
 8001304:	feffffff 	.word	0xfeffffff
 8001308:	ffc2ffff 	.word	0xffc2ffff

0800130c <HAL_RCC_GetSysClockFreq>:
 800130c:	b570      	push	{r4, r5, r6, lr}
 800130e:	4c14      	ldr	r4, [pc, #80]	; (8001360 <HAL_RCC_GetSysClockFreq+0x54>)
 8001310:	b088      	sub	sp, #32
 8001312:	2210      	movs	r2, #16
 8001314:	0021      	movs	r1, r4
 8001316:	4668      	mov	r0, sp
 8001318:	f000 fcb4 	bl	8001c84 <memcpy>
 800131c:	0021      	movs	r1, r4
 800131e:	ad04      	add	r5, sp, #16
 8001320:	2210      	movs	r2, #16
 8001322:	3110      	adds	r1, #16
 8001324:	0028      	movs	r0, r5
 8001326:	f000 fcad 	bl	8001c84 <memcpy>
 800132a:	220c      	movs	r2, #12
 800132c:	4e0d      	ldr	r6, [pc, #52]	; (8001364 <HAL_RCC_GetSysClockFreq+0x58>)
 800132e:	6873      	ldr	r3, [r6, #4]
 8001330:	401a      	ands	r2, r3
 8001332:	2a08      	cmp	r2, #8
 8001334:	d111      	bne.n	800135a <HAL_RCC_GetSysClockFreq+0x4e>
 8001336:	200f      	movs	r0, #15
 8001338:	466a      	mov	r2, sp
 800133a:	0c99      	lsrs	r1, r3, #18
 800133c:	4001      	ands	r1, r0
 800133e:	5c54      	ldrb	r4, [r2, r1]
 8001340:	6af2      	ldr	r2, [r6, #44]	; 0x2c
 8001342:	4002      	ands	r2, r0
 8001344:	5ca9      	ldrb	r1, [r5, r2]
 8001346:	03db      	lsls	r3, r3, #15
 8001348:	d505      	bpl.n	8001356 <HAL_RCC_GetSysClockFreq+0x4a>
 800134a:	4807      	ldr	r0, [pc, #28]	; (8001368 <HAL_RCC_GetSysClockFreq+0x5c>)
 800134c:	f7fe fedc 	bl	8000108 <__udivsi3>
 8001350:	4360      	muls	r0, r4
 8001352:	b008      	add	sp, #32
 8001354:	bd70      	pop	{r4, r5, r6, pc}
 8001356:	4805      	ldr	r0, [pc, #20]	; (800136c <HAL_RCC_GetSysClockFreq+0x60>)
 8001358:	e7fa      	b.n	8001350 <HAL_RCC_GetSysClockFreq+0x44>
 800135a:	4803      	ldr	r0, [pc, #12]	; (8001368 <HAL_RCC_GetSysClockFreq+0x5c>)
 800135c:	e7f9      	b.n	8001352 <HAL_RCC_GetSysClockFreq+0x46>
 800135e:	46c0      	nop			; (mov r8, r8)
 8001360:	08001cc0 	.word	0x08001cc0
 8001364:	40021000 	.word	0x40021000
 8001368:	007a1200 	.word	0x007a1200
 800136c:	003d0900 	.word	0x003d0900

08001370 <HAL_RCC_ClockConfig>:
 8001370:	b5f7      	push	{r0, r1, r2, r4, r5, r6, r7, lr}
 8001372:	0005      	movs	r5, r0
 8001374:	000f      	movs	r7, r1
 8001376:	2800      	cmp	r0, #0
 8001378:	d101      	bne.n	800137e <HAL_RCC_ClockConfig+0xe>
 800137a:	2001      	movs	r0, #1
 800137c:	bdfe      	pop	{r1, r2, r3, r4, r5, r6, r7, pc}
 800137e:	2201      	movs	r2, #1
 8001380:	4c37      	ldr	r4, [pc, #220]	; (8001460 <HAL_RCC_ClockConfig+0xf0>)
 8001382:	6823      	ldr	r3, [r4, #0]
 8001384:	4013      	ands	r3, r2
 8001386:	428b      	cmp	r3, r1
 8001388:	d31c      	bcc.n	80013c4 <HAL_RCC_ClockConfig+0x54>
 800138a:	6829      	ldr	r1, [r5, #0]
 800138c:	078b      	lsls	r3, r1, #30
 800138e:	d422      	bmi.n	80013d6 <HAL_RCC_ClockConfig+0x66>
 8001390:	07cb      	lsls	r3, r1, #31
 8001392:	d42f      	bmi.n	80013f4 <HAL_RCC_ClockConfig+0x84>
 8001394:	2301      	movs	r3, #1
 8001396:	6822      	ldr	r2, [r4, #0]
 8001398:	401a      	ands	r2, r3
 800139a:	42ba      	cmp	r2, r7
 800139c:	d851      	bhi.n	8001442 <HAL_RCC_ClockConfig+0xd2>
 800139e:	682b      	ldr	r3, [r5, #0]
 80013a0:	4c30      	ldr	r4, [pc, #192]	; (8001464 <HAL_RCC_ClockConfig+0xf4>)
 80013a2:	075b      	lsls	r3, r3, #29
 80013a4:	d454      	bmi.n	8001450 <HAL_RCC_ClockConfig+0xe0>
 80013a6:	f7ff ffb1 	bl	800130c <HAL_RCC_GetSysClockFreq>
 80013aa:	6863      	ldr	r3, [r4, #4]
 80013ac:	4a2e      	ldr	r2, [pc, #184]	; (8001468 <HAL_RCC_ClockConfig+0xf8>)
 80013ae:	061b      	lsls	r3, r3, #24
 80013b0:	0f1b      	lsrs	r3, r3, #28
 80013b2:	5cd3      	ldrb	r3, [r2, r3]
 80013b4:	40d8      	lsrs	r0, r3
 80013b6:	4b2d      	ldr	r3, [pc, #180]	; (800146c <HAL_RCC_ClockConfig+0xfc>)
 80013b8:	6018      	str	r0, [r3, #0]
 80013ba:	2000      	movs	r0, #0
 80013bc:	f7ff fc4e 	bl	8000c5c <HAL_InitTick>
 80013c0:	2000      	movs	r0, #0
 80013c2:	e7db      	b.n	800137c <HAL_RCC_ClockConfig+0xc>
 80013c4:	6823      	ldr	r3, [r4, #0]
 80013c6:	4393      	bics	r3, r2
 80013c8:	430b      	orrs	r3, r1
 80013ca:	6023      	str	r3, [r4, #0]
 80013cc:	6823      	ldr	r3, [r4, #0]
 80013ce:	4013      	ands	r3, r2
 80013d0:	428b      	cmp	r3, r1
 80013d2:	d1d2      	bne.n	800137a <HAL_RCC_ClockConfig+0xa>
 80013d4:	e7d9      	b.n	800138a <HAL_RCC_ClockConfig+0x1a>
 80013d6:	4a23      	ldr	r2, [pc, #140]	; (8001464 <HAL_RCC_ClockConfig+0xf4>)
 80013d8:	074b      	lsls	r3, r1, #29
 80013da:	d504      	bpl.n	80013e6 <HAL_RCC_ClockConfig+0x76>
 80013dc:	23e0      	movs	r3, #224	; 0xe0
 80013de:	6850      	ldr	r0, [r2, #4]
 80013e0:	00db      	lsls	r3, r3, #3
 80013e2:	4303      	orrs	r3, r0
 80013e4:	6053      	str	r3, [r2, #4]
 80013e6:	20f0      	movs	r0, #240	; 0xf0
 80013e8:	6853      	ldr	r3, [r2, #4]
 80013ea:	4383      	bics	r3, r0
 80013ec:	68a8      	ldr	r0, [r5, #8]
 80013ee:	4303      	orrs	r3, r0
 80013f0:	6053      	str	r3, [r2, #4]
 80013f2:	e7cd      	b.n	8001390 <HAL_RCC_ClockConfig+0x20>
 80013f4:	4e1b      	ldr	r6, [pc, #108]	; (8001464 <HAL_RCC_ClockConfig+0xf4>)
 80013f6:	686a      	ldr	r2, [r5, #4]
 80013f8:	6833      	ldr	r3, [r6, #0]
 80013fa:	2a01      	cmp	r2, #1
 80013fc:	d119      	bne.n	8001432 <HAL_RCC_ClockConfig+0xc2>
 80013fe:	039b      	lsls	r3, r3, #14
 8001400:	d5bb      	bpl.n	800137a <HAL_RCC_ClockConfig+0xa>
 8001402:	2103      	movs	r1, #3
 8001404:	6873      	ldr	r3, [r6, #4]
 8001406:	438b      	bics	r3, r1
 8001408:	4313      	orrs	r3, r2
 800140a:	6073      	str	r3, [r6, #4]
 800140c:	f7ff fc66 	bl	8000cdc <HAL_GetTick>
 8001410:	9001      	str	r0, [sp, #4]
 8001412:	230c      	movs	r3, #12
 8001414:	6872      	ldr	r2, [r6, #4]
 8001416:	401a      	ands	r2, r3
 8001418:	686b      	ldr	r3, [r5, #4]
 800141a:	009b      	lsls	r3, r3, #2
 800141c:	429a      	cmp	r2, r3
 800141e:	d0b9      	beq.n	8001394 <HAL_RCC_ClockConfig+0x24>
 8001420:	f7ff fc5c 	bl	8000cdc <HAL_GetTick>
 8001424:	9b01      	ldr	r3, [sp, #4]
 8001426:	1ac0      	subs	r0, r0, r3
 8001428:	4b11      	ldr	r3, [pc, #68]	; (8001470 <HAL_RCC_ClockConfig+0x100>)
 800142a:	4298      	cmp	r0, r3
 800142c:	d9f1      	bls.n	8001412 <HAL_RCC_ClockConfig+0xa2>
 800142e:	2003      	movs	r0, #3
 8001430:	e7a4      	b.n	800137c <HAL_RCC_ClockConfig+0xc>
 8001432:	2a02      	cmp	r2, #2
 8001434:	d102      	bne.n	800143c <HAL_RCC_ClockConfig+0xcc>
 8001436:	019b      	lsls	r3, r3, #6
 8001438:	d4e3      	bmi.n	8001402 <HAL_RCC_ClockConfig+0x92>
 800143a:	e79e      	b.n	800137a <HAL_RCC_ClockConfig+0xa>
 800143c:	079b      	lsls	r3, r3, #30
 800143e:	d4e0      	bmi.n	8001402 <HAL_RCC_ClockConfig+0x92>
 8001440:	e79b      	b.n	800137a <HAL_RCC_ClockConfig+0xa>
 8001442:	6822      	ldr	r2, [r4, #0]
 8001444:	439a      	bics	r2, r3
 8001446:	6022      	str	r2, [r4, #0]
 8001448:	6822      	ldr	r2, [r4, #0]
 800144a:	421a      	tst	r2, r3
 800144c:	d0a7      	beq.n	800139e <HAL_RCC_ClockConfig+0x2e>
 800144e:	e794      	b.n	800137a <HAL_RCC_ClockConfig+0xa>
 8001450:	6863      	ldr	r3, [r4, #4]
 8001452:	4a08      	ldr	r2, [pc, #32]	; (8001474 <HAL_RCC_ClockConfig+0x104>)
 8001454:	4013      	ands	r3, r2
 8001456:	68ea      	ldr	r2, [r5, #12]
 8001458:	4313      	orrs	r3, r2
 800145a:	6063      	str	r3, [r4, #4]
 800145c:	e7a3      	b.n	80013a6 <HAL_RCC_ClockConfig+0x36>
 800145e:	46c0      	nop			; (mov r8, r8)
 8001460:	40022000 	.word	0x40022000
 8001464:	40021000 	.word	0x40021000
 8001468:	08001d00 	.word	0x08001d00
 800146c:	20000020 	.word	0x20000020
 8001470:	00001388 	.word	0x00001388
 8001474:	fffff8ff 	.word	0xfffff8ff

08001478 <SPI_WaitFifoStateUntilTimeout.part.1>:
 8001478:	21e0      	movs	r1, #224	; 0xe0
 800147a:	6803      	ldr	r3, [r0, #0]
 800147c:	b510      	push	{r4, lr}
 800147e:	685a      	ldr	r2, [r3, #4]
 8001480:	438a      	bics	r2, r1
 8001482:	605a      	str	r2, [r3, #4]
 8001484:	2282      	movs	r2, #130	; 0x82
 8001486:	6841      	ldr	r1, [r0, #4]
 8001488:	0052      	lsls	r2, r2, #1
 800148a:	4291      	cmp	r1, r2
 800148c:	d10c      	bne.n	80014a8 <SPI_WaitFifoStateUntilTimeout.part.1+0x30>
 800148e:	2180      	movs	r1, #128	; 0x80
 8001490:	6882      	ldr	r2, [r0, #8]
 8001492:	0209      	lsls	r1, r1, #8
 8001494:	428a      	cmp	r2, r1
 8001496:	d003      	beq.n	80014a0 <SPI_WaitFifoStateUntilTimeout.part.1+0x28>
 8001498:	2180      	movs	r1, #128	; 0x80
 800149a:	00c9      	lsls	r1, r1, #3
 800149c:	428a      	cmp	r2, r1
 800149e:	d103      	bne.n	80014a8 <SPI_WaitFifoStateUntilTimeout.part.1+0x30>
 80014a0:	2140      	movs	r1, #64	; 0x40
 80014a2:	681a      	ldr	r2, [r3, #0]
 80014a4:	438a      	bics	r2, r1
 80014a6:	601a      	str	r2, [r3, #0]
 80014a8:	2180      	movs	r1, #128	; 0x80
 80014aa:	6a82      	ldr	r2, [r0, #40]	; 0x28
 80014ac:	0189      	lsls	r1, r1, #6
 80014ae:	428a      	cmp	r2, r1
 80014b0:	d106      	bne.n	80014c0 <SPI_WaitFifoStateUntilTimeout.part.1+0x48>
 80014b2:	6819      	ldr	r1, [r3, #0]
 80014b4:	4c07      	ldr	r4, [pc, #28]	; (80014d4 <SPI_WaitFifoStateUntilTimeout.part.1+0x5c>)
 80014b6:	4021      	ands	r1, r4
 80014b8:	6019      	str	r1, [r3, #0]
 80014ba:	6819      	ldr	r1, [r3, #0]
 80014bc:	430a      	orrs	r2, r1
 80014be:	601a      	str	r2, [r3, #0]
 80014c0:	0003      	movs	r3, r0
 80014c2:	2201      	movs	r2, #1
 80014c4:	335d      	adds	r3, #93	; 0x5d
 80014c6:	701a      	strb	r2, [r3, #0]
 80014c8:	2300      	movs	r3, #0
 80014ca:	305c      	adds	r0, #92	; 0x5c
 80014cc:	7003      	strb	r3, [r0, #0]
 80014ce:	2003      	movs	r0, #3
 80014d0:	bd10      	pop	{r4, pc}
 80014d2:	46c0      	nop			; (mov r8, r8)
 80014d4:	ffffdfff 	.word	0xffffdfff

080014d8 <SPI_WaitFlagStateUntilTimeout.constprop.9>:
 80014d8:	b5f7      	push	{r0, r1, r2, r4, r5, r6, r7, lr}
 80014da:	000e      	movs	r6, r1
 80014dc:	0014      	movs	r4, r2
 80014de:	0005      	movs	r5, r0
 80014e0:	f7ff fbfc 	bl	8000cdc <HAL_GetTick>
 80014e4:	19a4      	adds	r4, r4, r6
 80014e6:	1a24      	subs	r4, r4, r0
 80014e8:	f7ff fbf8 	bl	8000cdc <HAL_GetTick>
 80014ec:	0007      	movs	r7, r0
 80014ee:	4b0f      	ldr	r3, [pc, #60]	; (800152c <SPI_WaitFlagStateUntilTimeout.constprop.9+0x54>)
 80014f0:	681b      	ldr	r3, [r3, #0]
 80014f2:	015b      	lsls	r3, r3, #5
 80014f4:	0d1b      	lsrs	r3, r3, #20
 80014f6:	4363      	muls	r3, r4
 80014f8:	9301      	str	r3, [sp, #4]
 80014fa:	682b      	ldr	r3, [r5, #0]
 80014fc:	2280      	movs	r2, #128	; 0x80
 80014fe:	6898      	ldr	r0, [r3, #8]
 8001500:	4010      	ands	r0, r2
 8001502:	d009      	beq.n	8001518 <SPI_WaitFlagStateUntilTimeout.constprop.9+0x40>
 8001504:	1c72      	adds	r2, r6, #1
 8001506:	d0f9      	beq.n	80014fc <SPI_WaitFlagStateUntilTimeout.constprop.9+0x24>
 8001508:	f7ff fbe8 	bl	8000cdc <HAL_GetTick>
 800150c:	1bc0      	subs	r0, r0, r7
 800150e:	42a0      	cmp	r0, r4
 8001510:	d303      	bcc.n	800151a <SPI_WaitFlagStateUntilTimeout.constprop.9+0x42>
 8001512:	0028      	movs	r0, r5
 8001514:	f7ff ffb0 	bl	8001478 <SPI_WaitFifoStateUntilTimeout.part.1>
 8001518:	bdfe      	pop	{r1, r2, r3, r4, r5, r6, r7, pc}
 800151a:	9b01      	ldr	r3, [sp, #4]
 800151c:	1e5a      	subs	r2, r3, #1
 800151e:	4193      	sbcs	r3, r2
 8001520:	425b      	negs	r3, r3
 8001522:	401c      	ands	r4, r3
 8001524:	9b01      	ldr	r3, [sp, #4]
 8001526:	3b01      	subs	r3, #1
 8001528:	e7e6      	b.n	80014f8 <SPI_WaitFlagStateUntilTimeout.constprop.9+0x20>
 800152a:	46c0      	nop			; (mov r8, r8)
 800152c:	20000020 	.word	0x20000020

08001530 <SPI_WaitFifoStateUntilTimeout.constprop.10>:
 8001530:	b5f0      	push	{r4, r5, r6, r7, lr}
 8001532:	0016      	movs	r6, r2
 8001534:	001c      	movs	r4, r3
 8001536:	b085      	sub	sp, #20
 8001538:	000f      	movs	r7, r1
 800153a:	0005      	movs	r5, r0
 800153c:	f7ff fbce 	bl	8000cdc <HAL_GetTick>
 8001540:	19a4      	adds	r4, r4, r6
 8001542:	1a24      	subs	r4, r4, r0
 8001544:	f7ff fbca 	bl	8000cdc <HAL_GetTick>
 8001548:	2223      	movs	r2, #35	; 0x23
 800154a:	4b12      	ldr	r3, [pc, #72]	; (8001594 <SPI_WaitFifoStateUntilTimeout.constprop.10+0x64>)
 800154c:	9001      	str	r0, [sp, #4]
 800154e:	681b      	ldr	r3, [r3, #0]
 8001550:	4353      	muls	r3, r2
 8001552:	0d1b      	lsrs	r3, r3, #20
 8001554:	4363      	muls	r3, r4
 8001556:	9303      	str	r3, [sp, #12]
 8001558:	682b      	ldr	r3, [r5, #0]
 800155a:	6898      	ldr	r0, [r3, #8]
 800155c:	4038      	ands	r0, r7
 800155e:	d00f      	beq.n	8001580 <SPI_WaitFifoStateUntilTimeout.constprop.10+0x50>
 8001560:	22c0      	movs	r2, #192	; 0xc0
 8001562:	00d2      	lsls	r2, r2, #3
 8001564:	4297      	cmp	r7, r2
 8001566:	d100      	bne.n	800156a <SPI_WaitFifoStateUntilTimeout.constprop.10+0x3a>
 8001568:	7b1a      	ldrb	r2, [r3, #12]
 800156a:	1c72      	adds	r2, r6, #1
 800156c:	d0f5      	beq.n	800155a <SPI_WaitFifoStateUntilTimeout.constprop.10+0x2a>
 800156e:	f7ff fbb5 	bl	8000cdc <HAL_GetTick>
 8001572:	9b01      	ldr	r3, [sp, #4]
 8001574:	1ac0      	subs	r0, r0, r3
 8001576:	42a0      	cmp	r0, r4
 8001578:	d304      	bcc.n	8001584 <SPI_WaitFifoStateUntilTimeout.constprop.10+0x54>
 800157a:	0028      	movs	r0, r5
 800157c:	f7ff ff7c 	bl	8001478 <SPI_WaitFifoStateUntilTimeout.part.1>
 8001580:	b005      	add	sp, #20
 8001582:	bdf0      	pop	{r4, r5, r6, r7, pc}
 8001584:	9b03      	ldr	r3, [sp, #12]
 8001586:	1e5a      	subs	r2, r3, #1
 8001588:	4193      	sbcs	r3, r2
 800158a:	425b      	negs	r3, r3
 800158c:	401c      	ands	r4, r3
 800158e:	9b03      	ldr	r3, [sp, #12]
 8001590:	3b01      	subs	r3, #1
 8001592:	e7e0      	b.n	8001556 <SPI_WaitFifoStateUntilTimeout.constprop.10+0x26>
 8001594:	20000020 	.word	0x20000020

08001598 <SPI_EndRxTransaction>:
 8001598:	b5f8      	push	{r3, r4, r5, r6, r7, lr}
 800159a:	2382      	movs	r3, #130	; 0x82
 800159c:	0017      	movs	r7, r2
 800159e:	6842      	ldr	r2, [r0, #4]
 80015a0:	0004      	movs	r4, r0
 80015a2:	000e      	movs	r6, r1
 80015a4:	005b      	lsls	r3, r3, #1
 80015a6:	429a      	cmp	r2, r3
 80015a8:	d10d      	bne.n	80015c6 <SPI_EndRxTransaction+0x2e>
 80015aa:	2280      	movs	r2, #128	; 0x80
 80015ac:	6883      	ldr	r3, [r0, #8]
 80015ae:	0212      	lsls	r2, r2, #8
 80015b0:	4293      	cmp	r3, r2
 80015b2:	d003      	beq.n	80015bc <SPI_EndRxTransaction+0x24>
 80015b4:	2280      	movs	r2, #128	; 0x80
 80015b6:	00d2      	lsls	r2, r2, #3
 80015b8:	4293      	cmp	r3, r2
 80015ba:	d104      	bne.n	80015c6 <SPI_EndRxTransaction+0x2e>
 80015bc:	2140      	movs	r1, #64	; 0x40
 80015be:	6822      	ldr	r2, [r4, #0]
 80015c0:	6813      	ldr	r3, [r2, #0]
 80015c2:	438b      	bics	r3, r1
 80015c4:	6013      	str	r3, [r2, #0]
 80015c6:	003a      	movs	r2, r7
 80015c8:	0031      	movs	r1, r6
 80015ca:	0020      	movs	r0, r4
 80015cc:	f7ff ff84 	bl	80014d8 <SPI_WaitFlagStateUntilTimeout.constprop.9>
 80015d0:	1e05      	subs	r5, r0, #0
 80015d2:	d005      	beq.n	80015e0 <SPI_EndRxTransaction+0x48>
 80015d4:	2320      	movs	r3, #32
 80015d6:	6e22      	ldr	r2, [r4, #96]	; 0x60
 80015d8:	2503      	movs	r5, #3
 80015da:	4313      	orrs	r3, r2
 80015dc:	6623      	str	r3, [r4, #96]	; 0x60
 80015de:	e016      	b.n	800160e <SPI_EndRxTransaction+0x76>
 80015e0:	2382      	movs	r3, #130	; 0x82
 80015e2:	6862      	ldr	r2, [r4, #4]
 80015e4:	005b      	lsls	r3, r3, #1
 80015e6:	429a      	cmp	r2, r3
 80015e8:	d111      	bne.n	800160e <SPI_EndRxTransaction+0x76>
 80015ea:	2280      	movs	r2, #128	; 0x80
 80015ec:	68a3      	ldr	r3, [r4, #8]
 80015ee:	0212      	lsls	r2, r2, #8
 80015f0:	4293      	cmp	r3, r2
 80015f2:	d003      	beq.n	80015fc <SPI_EndRxTransaction+0x64>
 80015f4:	2280      	movs	r2, #128	; 0x80
 80015f6:	00d2      	lsls	r2, r2, #3
 80015f8:	4293      	cmp	r3, r2
 80015fa:	d108      	bne.n	800160e <SPI_EndRxTransaction+0x76>
 80015fc:	21c0      	movs	r1, #192	; 0xc0
 80015fe:	003b      	movs	r3, r7
 8001600:	0032      	movs	r2, r6
 8001602:	00c9      	lsls	r1, r1, #3
 8001604:	0020      	movs	r0, r4
 8001606:	f7ff ff93 	bl	8001530 <SPI_WaitFifoStateUntilTimeout.constprop.10>
 800160a:	2800      	cmp	r0, #0
 800160c:	d1e2      	bne.n	80015d4 <SPI_EndRxTransaction+0x3c>
 800160e:	0028      	movs	r0, r5
 8001610:	bdf8      	pop	{r3, r4, r5, r6, r7, pc}

08001612 <SPI_EndRxTxTransaction>:
 8001612:	b570      	push	{r4, r5, r6, lr}
 8001614:	0013      	movs	r3, r2
 8001616:	000d      	movs	r5, r1
 8001618:	0016      	movs	r6, r2
 800161a:	000a      	movs	r2, r1
 800161c:	21c0      	movs	r1, #192	; 0xc0
 800161e:	0149      	lsls	r1, r1, #5
 8001620:	0004      	movs	r4, r0
 8001622:	f7ff ff85 	bl	8001530 <SPI_WaitFifoStateUntilTimeout.constprop.10>
 8001626:	2800      	cmp	r0, #0
 8001628:	d005      	beq.n	8001636 <SPI_EndRxTxTransaction+0x24>
 800162a:	2320      	movs	r3, #32
 800162c:	6e22      	ldr	r2, [r4, #96]	; 0x60
 800162e:	2003      	movs	r0, #3
 8001630:	4313      	orrs	r3, r2
 8001632:	6623      	str	r3, [r4, #96]	; 0x60
 8001634:	e00f      	b.n	8001656 <SPI_EndRxTxTransaction+0x44>
 8001636:	0032      	movs	r2, r6
 8001638:	0029      	movs	r1, r5
 800163a:	0020      	movs	r0, r4
 800163c:	f7ff ff4c 	bl	80014d8 <SPI_WaitFlagStateUntilTimeout.constprop.9>
 8001640:	2800      	cmp	r0, #0
 8001642:	d1f2      	bne.n	800162a <SPI_EndRxTxTransaction+0x18>
 8001644:	21c0      	movs	r1, #192	; 0xc0
 8001646:	0033      	movs	r3, r6
 8001648:	002a      	movs	r2, r5
 800164a:	00c9      	lsls	r1, r1, #3
 800164c:	0020      	movs	r0, r4
 800164e:	f7ff ff6f 	bl	8001530 <SPI_WaitFifoStateUntilTimeout.constprop.10>
 8001652:	2800      	cmp	r0, #0
 8001654:	d1e9      	bne.n	800162a <SPI_EndRxTxTransaction+0x18>
 8001656:	bd70      	pop	{r4, r5, r6, pc}

08001658 <HAL_SPI_Init>:
 8001658:	b5f8      	push	{r3, r4, r5, r6, r7, lr}
 800165a:	0004      	movs	r4, r0
 800165c:	2001      	movs	r0, #1
 800165e:	2c00      	cmp	r4, #0
 8001660:	d067      	beq.n	8001732 <HAL_SPI_Init+0xda>
 8001662:	6a63      	ldr	r3, [r4, #36]	; 0x24
 8001664:	2b00      	cmp	r3, #0
 8001666:	d165      	bne.n	8001734 <HAL_SPI_Init+0xdc>
 8001668:	2282      	movs	r2, #130	; 0x82
 800166a:	6861      	ldr	r1, [r4, #4]
 800166c:	0052      	lsls	r2, r2, #1
 800166e:	4291      	cmp	r1, r2
 8001670:	d000      	beq.n	8001674 <HAL_SPI_Init+0x1c>
 8001672:	61e3      	str	r3, [r4, #28]
 8001674:	2300      	movs	r3, #0
 8001676:	0025      	movs	r5, r4
 8001678:	62a3      	str	r3, [r4, #40]	; 0x28
 800167a:	355d      	adds	r5, #93	; 0x5d
 800167c:	782b      	ldrb	r3, [r5, #0]
 800167e:	b2db      	uxtb	r3, r3
 8001680:	2b00      	cmp	r3, #0
 8001682:	d105      	bne.n	8001690 <HAL_SPI_Init+0x38>
 8001684:	0022      	movs	r2, r4
 8001686:	325c      	adds	r2, #92	; 0x5c
 8001688:	7013      	strb	r3, [r2, #0]
 800168a:	0020      	movs	r0, r4
 800168c:	f7ff fa82 	bl	8000b94 <HAL_SPI_MspInit>
 8001690:	2302      	movs	r3, #2
 8001692:	2140      	movs	r1, #64	; 0x40
 8001694:	6822      	ldr	r2, [r4, #0]
 8001696:	702b      	strb	r3, [r5, #0]
 8001698:	6813      	ldr	r3, [r2, #0]
 800169a:	68e5      	ldr	r5, [r4, #12]
 800169c:	438b      	bics	r3, r1
 800169e:	21e0      	movs	r1, #224	; 0xe0
 80016a0:	6013      	str	r3, [r2, #0]
 80016a2:	00c9      	lsls	r1, r1, #3
 80016a4:	2300      	movs	r3, #0
 80016a6:	428d      	cmp	r5, r1
 80016a8:	d848      	bhi.n	800173c <HAL_SPI_Init+0xe4>
 80016aa:	2080      	movs	r0, #128	; 0x80
 80016ac:	0140      	lsls	r0, r0, #5
 80016ae:	428d      	cmp	r5, r1
 80016b0:	d000      	beq.n	80016b4 <HAL_SPI_Init+0x5c>
 80016b2:	62a3      	str	r3, [r4, #40]	; 0x28
 80016b4:	2382      	movs	r3, #130	; 0x82
 80016b6:	6866      	ldr	r6, [r4, #4]
 80016b8:	005b      	lsls	r3, r3, #1
 80016ba:	4033      	ands	r3, r6
 80016bc:	2684      	movs	r6, #132	; 0x84
 80016be:	68a7      	ldr	r7, [r4, #8]
 80016c0:	0236      	lsls	r6, r6, #8
 80016c2:	403e      	ands	r6, r7
 80016c4:	4333      	orrs	r3, r6
 80016c6:	2602      	movs	r6, #2
 80016c8:	6927      	ldr	r7, [r4, #16]
 80016ca:	69a1      	ldr	r1, [r4, #24]
 80016cc:	403e      	ands	r6, r7
 80016ce:	4333      	orrs	r3, r6
 80016d0:	2601      	movs	r6, #1
 80016d2:	6967      	ldr	r7, [r4, #20]
 80016d4:	46b4      	mov	ip, r6
 80016d6:	4037      	ands	r7, r6
 80016d8:	433b      	orrs	r3, r7
 80016da:	2780      	movs	r7, #128	; 0x80
 80016dc:	00bf      	lsls	r7, r7, #2
 80016de:	400f      	ands	r7, r1
 80016e0:	433b      	orrs	r3, r7
 80016e2:	2738      	movs	r7, #56	; 0x38
 80016e4:	69e6      	ldr	r6, [r4, #28]
 80016e6:	0c09      	lsrs	r1, r1, #16
 80016e8:	4037      	ands	r7, r6
 80016ea:	433b      	orrs	r3, r7
 80016ec:	2780      	movs	r7, #128	; 0x80
 80016ee:	6a26      	ldr	r6, [r4, #32]
 80016f0:	4037      	ands	r7, r6
 80016f2:	433b      	orrs	r3, r7
 80016f4:	2780      	movs	r7, #128	; 0x80
 80016f6:	6aa6      	ldr	r6, [r4, #40]	; 0x28
 80016f8:	01bf      	lsls	r7, r7, #6
 80016fa:	4037      	ands	r7, r6
 80016fc:	433b      	orrs	r3, r7
 80016fe:	6013      	str	r3, [r2, #0]
 8001700:	2310      	movs	r3, #16
 8001702:	2708      	movs	r7, #8
 8001704:	6a66      	ldr	r6, [r4, #36]	; 0x24
 8001706:	4033      	ands	r3, r6
 8001708:	6b66      	ldr	r6, [r4, #52]	; 0x34
 800170a:	4037      	ands	r7, r6
 800170c:	433b      	orrs	r3, r7
 800170e:	27f0      	movs	r7, #240	; 0xf0
 8001710:	013f      	lsls	r7, r7, #4
 8001712:	403d      	ands	r5, r7
 8001714:	431d      	orrs	r5, r3
 8001716:	2304      	movs	r3, #4
 8001718:	4019      	ands	r1, r3
 800171a:	4329      	orrs	r1, r5
 800171c:	4308      	orrs	r0, r1
 800171e:	6050      	str	r0, [r2, #4]
 8001720:	69d3      	ldr	r3, [r2, #28]
 8001722:	4908      	ldr	r1, [pc, #32]	; (8001744 <HAL_SPI_Init+0xec>)
 8001724:	2000      	movs	r0, #0
 8001726:	400b      	ands	r3, r1
 8001728:	61d3      	str	r3, [r2, #28]
 800172a:	4663      	mov	r3, ip
 800172c:	6620      	str	r0, [r4, #96]	; 0x60
 800172e:	345d      	adds	r4, #93	; 0x5d
 8001730:	7023      	strb	r3, [r4, #0]
 8001732:	bdf8      	pop	{r3, r4, r5, r6, r7, pc}
 8001734:	2300      	movs	r3, #0
 8001736:	6123      	str	r3, [r4, #16]
 8001738:	6163      	str	r3, [r4, #20]
 800173a:	e79b      	b.n	8001674 <HAL_SPI_Init+0x1c>
 800173c:	21f0      	movs	r1, #240	; 0xf0
 800173e:	0018      	movs	r0, r3
 8001740:	0109      	lsls	r1, r1, #4
 8001742:	e7b4      	b.n	80016ae <HAL_SPI_Init+0x56>
 8001744:	fffff7ff 	.word	0xfffff7ff

08001748 <HAL_SPI_Transmit>:
 8001748:	b5f0      	push	{r4, r5, r6, r7, lr}
 800174a:	001e      	movs	r6, r3
 800174c:	0003      	movs	r3, r0
 800174e:	b085      	sub	sp, #20
 8001750:	335c      	adds	r3, #92	; 0x5c
 8001752:	9301      	str	r3, [sp, #4]
 8001754:	781b      	ldrb	r3, [r3, #0]
 8001756:	0004      	movs	r4, r0
 8001758:	000d      	movs	r5, r1
 800175a:	0017      	movs	r7, r2
 800175c:	2002      	movs	r0, #2
 800175e:	2b01      	cmp	r3, #1
 8001760:	d100      	bne.n	8001764 <HAL_SPI_Transmit+0x1c>
 8001762:	e07e      	b.n	8001862 <HAL_SPI_Transmit+0x11a>
 8001764:	2301      	movs	r3, #1
 8001766:	9a01      	ldr	r2, [sp, #4]
 8001768:	7013      	strb	r3, [r2, #0]
 800176a:	f7ff fab7 	bl	8000cdc <HAL_GetTick>
 800176e:	0022      	movs	r2, r4
 8001770:	9000      	str	r0, [sp, #0]
 8001772:	325d      	adds	r2, #93	; 0x5d
 8001774:	7813      	ldrb	r3, [r2, #0]
 8001776:	2002      	movs	r0, #2
 8001778:	b2db      	uxtb	r3, r3
 800177a:	2b01      	cmp	r3, #1
 800177c:	d16b      	bne.n	8001856 <HAL_SPI_Transmit+0x10e>
 800177e:	0018      	movs	r0, r3
 8001780:	2d00      	cmp	r5, #0
 8001782:	d068      	beq.n	8001856 <HAL_SPI_Transmit+0x10e>
 8001784:	2f00      	cmp	r7, #0
 8001786:	d066      	beq.n	8001856 <HAL_SPI_Transmit+0x10e>
 8001788:	3302      	adds	r3, #2
 800178a:	7013      	strb	r3, [r2, #0]
 800178c:	2300      	movs	r3, #0
 800178e:	1da2      	adds	r2, r4, #6
 8001790:	6623      	str	r3, [r4, #96]	; 0x60
 8001792:	6423      	str	r3, [r4, #64]	; 0x40
 8001794:	63a5      	str	r5, [r4, #56]	; 0x38
 8001796:	87a7      	strh	r7, [r4, #60]	; 0x3c
 8001798:	87e7      	strh	r7, [r4, #62]	; 0x3e
 800179a:	3202      	adds	r2, #2
 800179c:	8793      	strh	r3, [r2, #60]	; 0x3c
 800179e:	87d3      	strh	r3, [r2, #62]	; 0x3e
 80017a0:	6523      	str	r3, [r4, #80]	; 0x50
 80017a2:	64e3      	str	r3, [r4, #76]	; 0x4c
 80017a4:	2380      	movs	r3, #128	; 0x80
 80017a6:	68a1      	ldr	r1, [r4, #8]
 80017a8:	6822      	ldr	r2, [r4, #0]
 80017aa:	021b      	lsls	r3, r3, #8
 80017ac:	4299      	cmp	r1, r3
 80017ae:	d108      	bne.n	80017c2 <HAL_SPI_Transmit+0x7a>
 80017b0:	2140      	movs	r1, #64	; 0x40
 80017b2:	6813      	ldr	r3, [r2, #0]
 80017b4:	438b      	bics	r3, r1
 80017b6:	6013      	str	r3, [r2, #0]
 80017b8:	2380      	movs	r3, #128	; 0x80
 80017ba:	6811      	ldr	r1, [r2, #0]
 80017bc:	01db      	lsls	r3, r3, #7
 80017be:	430b      	orrs	r3, r1
 80017c0:	6013      	str	r3, [r2, #0]
 80017c2:	2340      	movs	r3, #64	; 0x40
 80017c4:	6811      	ldr	r1, [r2, #0]
 80017c6:	4219      	tst	r1, r3
 80017c8:	d102      	bne.n	80017d0 <HAL_SPI_Transmit+0x88>
 80017ca:	6811      	ldr	r1, [r2, #0]
 80017cc:	430b      	orrs	r3, r1
 80017ce:	6013      	str	r3, [r2, #0]
 80017d0:	21e0      	movs	r1, #224	; 0xe0
 80017d2:	68e0      	ldr	r0, [r4, #12]
 80017d4:	6863      	ldr	r3, [r4, #4]
 80017d6:	00c9      	lsls	r1, r1, #3
 80017d8:	4288      	cmp	r0, r1
 80017da:	d944      	bls.n	8001866 <HAL_SPI_Transmit+0x11e>
 80017dc:	2b00      	cmp	r3, #0
 80017de:	d001      	beq.n	80017e4 <HAL_SPI_Transmit+0x9c>
 80017e0:	2f01      	cmp	r7, #1
 80017e2:	d107      	bne.n	80017f4 <HAL_SPI_Transmit+0xac>
 80017e4:	882b      	ldrh	r3, [r5, #0]
 80017e6:	3502      	adds	r5, #2
 80017e8:	60d3      	str	r3, [r2, #12]
 80017ea:	8fe3      	ldrh	r3, [r4, #62]	; 0x3e
 80017ec:	63a5      	str	r5, [r4, #56]	; 0x38
 80017ee:	3b01      	subs	r3, #1
 80017f0:	b29b      	uxth	r3, r3
 80017f2:	87e3      	strh	r3, [r4, #62]	; 0x3e
 80017f4:	2502      	movs	r5, #2
 80017f6:	e00c      	b.n	8001812 <HAL_SPI_Transmit+0xca>
 80017f8:	6822      	ldr	r2, [r4, #0]
 80017fa:	6893      	ldr	r3, [r2, #8]
 80017fc:	422b      	tst	r3, r5
 80017fe:	d021      	beq.n	8001844 <HAL_SPI_Transmit+0xfc>
 8001800:	6ba3      	ldr	r3, [r4, #56]	; 0x38
 8001802:	8819      	ldrh	r1, [r3, #0]
 8001804:	3302      	adds	r3, #2
 8001806:	60d1      	str	r1, [r2, #12]
 8001808:	63a3      	str	r3, [r4, #56]	; 0x38
 800180a:	8fe3      	ldrh	r3, [r4, #62]	; 0x3e
 800180c:	3b01      	subs	r3, #1
 800180e:	b29b      	uxth	r3, r3
 8001810:	87e3      	strh	r3, [r4, #62]	; 0x3e
 8001812:	8fe3      	ldrh	r3, [r4, #62]	; 0x3e
 8001814:	2b00      	cmp	r3, #0
 8001816:	d1ef      	bne.n	80017f8 <HAL_SPI_Transmit+0xb0>
 8001818:	9a00      	ldr	r2, [sp, #0]
 800181a:	0031      	movs	r1, r6
 800181c:	0020      	movs	r0, r4
 800181e:	f7ff fef8 	bl	8001612 <SPI_EndRxTxTransaction>
 8001822:	2800      	cmp	r0, #0
 8001824:	d149      	bne.n	80018ba <HAL_SPI_Transmit+0x172>
 8001826:	68a3      	ldr	r3, [r4, #8]
 8001828:	2b00      	cmp	r3, #0
 800182a:	d106      	bne.n	800183a <HAL_SPI_Transmit+0xf2>
 800182c:	9303      	str	r3, [sp, #12]
 800182e:	6823      	ldr	r3, [r4, #0]
 8001830:	68da      	ldr	r2, [r3, #12]
 8001832:	9203      	str	r2, [sp, #12]
 8001834:	689b      	ldr	r3, [r3, #8]
 8001836:	9303      	str	r3, [sp, #12]
 8001838:	9b03      	ldr	r3, [sp, #12]
 800183a:	6e20      	ldr	r0, [r4, #96]	; 0x60
 800183c:	1e43      	subs	r3, r0, #1
 800183e:	4198      	sbcs	r0, r3
 8001840:	b2c0      	uxtb	r0, r0
 8001842:	e008      	b.n	8001856 <HAL_SPI_Transmit+0x10e>
 8001844:	f7ff fa4a 	bl	8000cdc <HAL_GetTick>
 8001848:	9b00      	ldr	r3, [sp, #0]
 800184a:	1ac0      	subs	r0, r0, r3
 800184c:	42b0      	cmp	r0, r6
 800184e:	d3e0      	bcc.n	8001812 <HAL_SPI_Transmit+0xca>
 8001850:	1c73      	adds	r3, r6, #1
 8001852:	d0de      	beq.n	8001812 <HAL_SPI_Transmit+0xca>
 8001854:	2003      	movs	r0, #3
 8001856:	2301      	movs	r3, #1
 8001858:	345d      	adds	r4, #93	; 0x5d
 800185a:	7023      	strb	r3, [r4, #0]
 800185c:	2300      	movs	r3, #0
 800185e:	9a01      	ldr	r2, [sp, #4]
 8001860:	7013      	strb	r3, [r2, #0]
 8001862:	b005      	add	sp, #20
 8001864:	bdf0      	pop	{r4, r5, r6, r7, pc}
 8001866:	2b00      	cmp	r3, #0
 8001868:	d001      	beq.n	800186e <HAL_SPI_Transmit+0x126>
 800186a:	2f01      	cmp	r7, #1
 800186c:	d108      	bne.n	8001880 <HAL_SPI_Transmit+0x138>
 800186e:	782b      	ldrb	r3, [r5, #0]
 8001870:	7313      	strb	r3, [r2, #12]
 8001872:	6ba3      	ldr	r3, [r4, #56]	; 0x38
 8001874:	3301      	adds	r3, #1
 8001876:	63a3      	str	r3, [r4, #56]	; 0x38
 8001878:	8fe3      	ldrh	r3, [r4, #62]	; 0x3e
 800187a:	3b01      	subs	r3, #1
 800187c:	b29b      	uxth	r3, r3
 800187e:	87e3      	strh	r3, [r4, #62]	; 0x3e
 8001880:	2502      	movs	r5, #2
 8001882:	e00d      	b.n	80018a0 <HAL_SPI_Transmit+0x158>
 8001884:	6823      	ldr	r3, [r4, #0]
 8001886:	689a      	ldr	r2, [r3, #8]
 8001888:	422a      	tst	r2, r5
 800188a:	d00d      	beq.n	80018a8 <HAL_SPI_Transmit+0x160>
 800188c:	6ba2      	ldr	r2, [r4, #56]	; 0x38
 800188e:	7812      	ldrb	r2, [r2, #0]
 8001890:	731a      	strb	r2, [r3, #12]
 8001892:	6ba3      	ldr	r3, [r4, #56]	; 0x38
 8001894:	3301      	adds	r3, #1
 8001896:	63a3      	str	r3, [r4, #56]	; 0x38
 8001898:	8fe3      	ldrh	r3, [r4, #62]	; 0x3e
 800189a:	3b01      	subs	r3, #1
 800189c:	b29b      	uxth	r3, r3
 800189e:	87e3      	strh	r3, [r4, #62]	; 0x3e
 80018a0:	8fe3      	ldrh	r3, [r4, #62]	; 0x3e
 80018a2:	2b00      	cmp	r3, #0
 80018a4:	d1ee      	bne.n	8001884 <HAL_SPI_Transmit+0x13c>
 80018a6:	e7b7      	b.n	8001818 <HAL_SPI_Transmit+0xd0>
 80018a8:	f7ff fa18 	bl	8000cdc <HAL_GetTick>
 80018ac:	9b00      	ldr	r3, [sp, #0]
 80018ae:	1ac0      	subs	r0, r0, r3
 80018b0:	42b0      	cmp	r0, r6
 80018b2:	d3f5      	bcc.n	80018a0 <HAL_SPI_Transmit+0x158>
 80018b4:	1c73      	adds	r3, r6, #1
 80018b6:	d0f3      	beq.n	80018a0 <HAL_SPI_Transmit+0x158>
 80018b8:	e7cc      	b.n	8001854 <HAL_SPI_Transmit+0x10c>
 80018ba:	2320      	movs	r3, #32
 80018bc:	6623      	str	r3, [r4, #96]	; 0x60
 80018be:	e7b2      	b.n	8001826 <HAL_SPI_Transmit+0xde>

080018c0 <HAL_SPI_TransmitReceive>:
 80018c0:	b5f7      	push	{r0, r1, r2, r4, r5, r6, r7, lr}
 80018c2:	001e      	movs	r6, r3
 80018c4:	0003      	movs	r3, r0
 80018c6:	335c      	adds	r3, #92	; 0x5c
 80018c8:	0017      	movs	r7, r2
 80018ca:	781a      	ldrb	r2, [r3, #0]
 80018cc:	0004      	movs	r4, r0
 80018ce:	000d      	movs	r5, r1
 80018d0:	2002      	movs	r0, #2
 80018d2:	2a01      	cmp	r2, #1
 80018d4:	d100      	bne.n	80018d8 <HAL_SPI_TransmitReceive+0x18>
 80018d6:	e0a8      	b.n	8001a2a <HAL_SPI_TransmitReceive+0x16a>
 80018d8:	2201      	movs	r2, #1
 80018da:	701a      	strb	r2, [r3, #0]
 80018dc:	f7ff f9fe 	bl	8000cdc <HAL_GetTick>
 80018e0:	0023      	movs	r3, r4
 80018e2:	9001      	str	r0, [sp, #4]
 80018e4:	335d      	adds	r3, #93	; 0x5d
 80018e6:	781b      	ldrb	r3, [r3, #0]
 80018e8:	6861      	ldr	r1, [r4, #4]
 80018ea:	b2db      	uxtb	r3, r3
 80018ec:	2b01      	cmp	r3, #1
 80018ee:	d00c      	beq.n	800190a <HAL_SPI_TransmitReceive+0x4a>
 80018f0:	2282      	movs	r2, #130	; 0x82
 80018f2:	2002      	movs	r0, #2
 80018f4:	0052      	lsls	r2, r2, #1
 80018f6:	4291      	cmp	r1, r2
 80018f8:	d000      	beq.n	80018fc <HAL_SPI_TransmitReceive+0x3c>
 80018fa:	e08f      	b.n	8001a1c <HAL_SPI_TransmitReceive+0x15c>
 80018fc:	68a2      	ldr	r2, [r4, #8]
 80018fe:	2a00      	cmp	r2, #0
 8001900:	d000      	beq.n	8001904 <HAL_SPI_TransmitReceive+0x44>
 8001902:	e08b      	b.n	8001a1c <HAL_SPI_TransmitReceive+0x15c>
 8001904:	2b04      	cmp	r3, #4
 8001906:	d000      	beq.n	800190a <HAL_SPI_TransmitReceive+0x4a>
 8001908:	e088      	b.n	8001a1c <HAL_SPI_TransmitReceive+0x15c>
 800190a:	2001      	movs	r0, #1
 800190c:	2d00      	cmp	r5, #0
 800190e:	d100      	bne.n	8001912 <HAL_SPI_TransmitReceive+0x52>
 8001910:	e084      	b.n	8001a1c <HAL_SPI_TransmitReceive+0x15c>
 8001912:	2f00      	cmp	r7, #0
 8001914:	d100      	bne.n	8001918 <HAL_SPI_TransmitReceive+0x58>
 8001916:	e081      	b.n	8001a1c <HAL_SPI_TransmitReceive+0x15c>
 8001918:	2e00      	cmp	r6, #0
 800191a:	d100      	bne.n	800191e <HAL_SPI_TransmitReceive+0x5e>
 800191c:	e07e      	b.n	8001a1c <HAL_SPI_TransmitReceive+0x15c>
 800191e:	0023      	movs	r3, r4
 8001920:	335d      	adds	r3, #93	; 0x5d
 8001922:	781a      	ldrb	r2, [r3, #0]
 8001924:	2a04      	cmp	r2, #4
 8001926:	d001      	beq.n	800192c <HAL_SPI_TransmitReceive+0x6c>
 8001928:	2205      	movs	r2, #5
 800192a:	701a      	strb	r2, [r3, #0]
 800192c:	0022      	movs	r2, r4
 800192e:	2300      	movs	r3, #0
 8001930:	3208      	adds	r2, #8
 8001932:	6623      	str	r3, [r4, #96]	; 0x60
 8001934:	6427      	str	r7, [r4, #64]	; 0x40
 8001936:	87d6      	strh	r6, [r2, #62]	; 0x3e
 8001938:	1da2      	adds	r2, r4, #6
 800193a:	87d6      	strh	r6, [r2, #62]	; 0x3e
 800193c:	22e0      	movs	r2, #224	; 0xe0
 800193e:	68e0      	ldr	r0, [r4, #12]
 8001940:	64e3      	str	r3, [r4, #76]	; 0x4c
 8001942:	6523      	str	r3, [r4, #80]	; 0x50
 8001944:	63a5      	str	r5, [r4, #56]	; 0x38
 8001946:	87e6      	strh	r6, [r4, #62]	; 0x3e
 8001948:	87a6      	strh	r6, [r4, #60]	; 0x3c
 800194a:	6823      	ldr	r3, [r4, #0]
 800194c:	00d2      	lsls	r2, r2, #3
 800194e:	4290      	cmp	r0, r2
 8001950:	d930      	bls.n	80019b4 <HAL_SPI_TransmitReceive+0xf4>
 8001952:	685a      	ldr	r2, [r3, #4]
 8001954:	4f5a      	ldr	r7, [pc, #360]	; (8001ac0 <HAL_SPI_TransmitReceive+0x200>)
 8001956:	403a      	ands	r2, r7
 8001958:	605a      	str	r2, [r3, #4]
 800195a:	2240      	movs	r2, #64	; 0x40
 800195c:	681f      	ldr	r7, [r3, #0]
 800195e:	4217      	tst	r7, r2
 8001960:	d102      	bne.n	8001968 <HAL_SPI_TransmitReceive+0xa8>
 8001962:	681f      	ldr	r7, [r3, #0]
 8001964:	433a      	orrs	r2, r7
 8001966:	601a      	str	r2, [r3, #0]
 8001968:	22e0      	movs	r2, #224	; 0xe0
 800196a:	00d2      	lsls	r2, r2, #3
 800196c:	4290      	cmp	r0, r2
 800196e:	d95d      	bls.n	8001a2c <HAL_SPI_TransmitReceive+0x16c>
 8001970:	2900      	cmp	r1, #0
 8001972:	d001      	beq.n	8001978 <HAL_SPI_TransmitReceive+0xb8>
 8001974:	2e01      	cmp	r6, #1
 8001976:	d107      	bne.n	8001988 <HAL_SPI_TransmitReceive+0xc8>
 8001978:	882a      	ldrh	r2, [r5, #0]
 800197a:	3502      	adds	r5, #2
 800197c:	60da      	str	r2, [r3, #12]
 800197e:	8fe3      	ldrh	r3, [r4, #62]	; 0x3e
 8001980:	63a5      	str	r5, [r4, #56]	; 0x38
 8001982:	3b01      	subs	r3, #1
 8001984:	b29b      	uxth	r3, r3
 8001986:	87e3      	strh	r3, [r4, #62]	; 0x3e
 8001988:	2501      	movs	r5, #1
 800198a:	2702      	movs	r7, #2
 800198c:	002e      	movs	r6, r5
 800198e:	8fe3      	ldrh	r3, [r4, #62]	; 0x3e
 8001990:	2b00      	cmp	r3, #0
 8001992:	d114      	bne.n	80019be <HAL_SPI_TransmitReceive+0xfe>
 8001994:	0023      	movs	r3, r4
 8001996:	3308      	adds	r3, #8
 8001998:	8fdb      	ldrh	r3, [r3, #62]	; 0x3e
 800199a:	2b00      	cmp	r3, #0
 800199c:	d10f      	bne.n	80019be <HAL_SPI_TransmitReceive+0xfe>
 800199e:	9a01      	ldr	r2, [sp, #4]
 80019a0:	9908      	ldr	r1, [sp, #32]
 80019a2:	0020      	movs	r0, r4
 80019a4:	f7ff fe35 	bl	8001612 <SPI_EndRxTxTransaction>
 80019a8:	2800      	cmp	r0, #0
 80019aa:	d037      	beq.n	8001a1c <HAL_SPI_TransmitReceive+0x15c>
 80019ac:	2320      	movs	r3, #32
 80019ae:	2001      	movs	r0, #1
 80019b0:	6623      	str	r3, [r4, #96]	; 0x60
 80019b2:	e033      	b.n	8001a1c <HAL_SPI_TransmitReceive+0x15c>
 80019b4:	2280      	movs	r2, #128	; 0x80
 80019b6:	685f      	ldr	r7, [r3, #4]
 80019b8:	0152      	lsls	r2, r2, #5
 80019ba:	433a      	orrs	r2, r7
 80019bc:	e7cc      	b.n	8001958 <HAL_SPI_TransmitReceive+0x98>
 80019be:	6821      	ldr	r1, [r4, #0]
 80019c0:	688b      	ldr	r3, [r1, #8]
 80019c2:	423b      	tst	r3, r7
 80019c4:	d00e      	beq.n	80019e4 <HAL_SPI_TransmitReceive+0x124>
 80019c6:	8fe3      	ldrh	r3, [r4, #62]	; 0x3e
 80019c8:	2b00      	cmp	r3, #0
 80019ca:	d00b      	beq.n	80019e4 <HAL_SPI_TransmitReceive+0x124>
 80019cc:	2d01      	cmp	r5, #1
 80019ce:	d109      	bne.n	80019e4 <HAL_SPI_TransmitReceive+0x124>
 80019d0:	2500      	movs	r5, #0
 80019d2:	6ba3      	ldr	r3, [r4, #56]	; 0x38
 80019d4:	881a      	ldrh	r2, [r3, #0]
 80019d6:	3302      	adds	r3, #2
 80019d8:	60ca      	str	r2, [r1, #12]
 80019da:	63a3      	str	r3, [r4, #56]	; 0x38
 80019dc:	8fe3      	ldrh	r3, [r4, #62]	; 0x3e
 80019de:	3b01      	subs	r3, #1
 80019e0:	b29b      	uxth	r3, r3
 80019e2:	87e3      	strh	r3, [r4, #62]	; 0x3e
 80019e4:	688b      	ldr	r3, [r1, #8]
 80019e6:	4233      	tst	r3, r6
 80019e8:	d00e      	beq.n	8001a08 <HAL_SPI_TransmitReceive+0x148>
 80019ea:	0022      	movs	r2, r4
 80019ec:	3208      	adds	r2, #8
 80019ee:	8fd3      	ldrh	r3, [r2, #62]	; 0x3e
 80019f0:	2b00      	cmp	r3, #0
 80019f2:	d009      	beq.n	8001a08 <HAL_SPI_TransmitReceive+0x148>
 80019f4:	0035      	movs	r5, r6
 80019f6:	68c9      	ldr	r1, [r1, #12]
 80019f8:	6c23      	ldr	r3, [r4, #64]	; 0x40
 80019fa:	8019      	strh	r1, [r3, #0]
 80019fc:	3302      	adds	r3, #2
 80019fe:	6423      	str	r3, [r4, #64]	; 0x40
 8001a00:	8fd3      	ldrh	r3, [r2, #62]	; 0x3e
 8001a02:	3b01      	subs	r3, #1
 8001a04:	b29b      	uxth	r3, r3
 8001a06:	87d3      	strh	r3, [r2, #62]	; 0x3e
 8001a08:	f7ff f968 	bl	8000cdc <HAL_GetTick>
 8001a0c:	9b01      	ldr	r3, [sp, #4]
 8001a0e:	1ac0      	subs	r0, r0, r3
 8001a10:	9b08      	ldr	r3, [sp, #32]
 8001a12:	4283      	cmp	r3, r0
 8001a14:	d8bb      	bhi.n	800198e <HAL_SPI_TransmitReceive+0xce>
 8001a16:	3301      	adds	r3, #1
 8001a18:	d0b9      	beq.n	800198e <HAL_SPI_TransmitReceive+0xce>
 8001a1a:	2003      	movs	r0, #3
 8001a1c:	0023      	movs	r3, r4
 8001a1e:	2201      	movs	r2, #1
 8001a20:	335d      	adds	r3, #93	; 0x5d
 8001a22:	701a      	strb	r2, [r3, #0]
 8001a24:	2300      	movs	r3, #0
 8001a26:	345c      	adds	r4, #92	; 0x5c
 8001a28:	7023      	strb	r3, [r4, #0]
 8001a2a:	bdfe      	pop	{r1, r2, r3, r4, r5, r6, r7, pc}
 8001a2c:	2900      	cmp	r1, #0
 8001a2e:	d001      	beq.n	8001a34 <HAL_SPI_TransmitReceive+0x174>
 8001a30:	2e01      	cmp	r6, #1
 8001a32:	d108      	bne.n	8001a46 <HAL_SPI_TransmitReceive+0x186>
 8001a34:	782a      	ldrb	r2, [r5, #0]
 8001a36:	731a      	strb	r2, [r3, #12]
 8001a38:	6ba3      	ldr	r3, [r4, #56]	; 0x38
 8001a3a:	3301      	adds	r3, #1
 8001a3c:	63a3      	str	r3, [r4, #56]	; 0x38
 8001a3e:	8fe3      	ldrh	r3, [r4, #62]	; 0x3e
 8001a40:	3b01      	subs	r3, #1
 8001a42:	b29b      	uxth	r3, r3
 8001a44:	87e3      	strh	r3, [r4, #62]	; 0x3e
 8001a46:	2501      	movs	r5, #1
 8001a48:	2702      	movs	r7, #2
 8001a4a:	002e      	movs	r6, r5
 8001a4c:	8fe3      	ldrh	r3, [r4, #62]	; 0x3e
 8001a4e:	2b00      	cmp	r3, #0
 8001a50:	d104      	bne.n	8001a5c <HAL_SPI_TransmitReceive+0x19c>
 8001a52:	0023      	movs	r3, r4
 8001a54:	3308      	adds	r3, #8
 8001a56:	8fdb      	ldrh	r3, [r3, #62]	; 0x3e
 8001a58:	2b00      	cmp	r3, #0
 8001a5a:	d0a0      	beq.n	800199e <HAL_SPI_TransmitReceive+0xde>
 8001a5c:	6823      	ldr	r3, [r4, #0]
 8001a5e:	689a      	ldr	r2, [r3, #8]
 8001a60:	423a      	tst	r2, r7
 8001a62:	d00f      	beq.n	8001a84 <HAL_SPI_TransmitReceive+0x1c4>
 8001a64:	8fe2      	ldrh	r2, [r4, #62]	; 0x3e
 8001a66:	2a00      	cmp	r2, #0
 8001a68:	d00c      	beq.n	8001a84 <HAL_SPI_TransmitReceive+0x1c4>
 8001a6a:	2d01      	cmp	r5, #1
 8001a6c:	d10a      	bne.n	8001a84 <HAL_SPI_TransmitReceive+0x1c4>
 8001a6e:	2500      	movs	r5, #0
 8001a70:	6ba2      	ldr	r2, [r4, #56]	; 0x38
 8001a72:	7812      	ldrb	r2, [r2, #0]
 8001a74:	731a      	strb	r2, [r3, #12]
 8001a76:	6ba3      	ldr	r3, [r4, #56]	; 0x38
 8001a78:	3301      	adds	r3, #1
 8001a7a:	63a3      	str	r3, [r4, #56]	; 0x38
 8001a7c:	8fe3      	ldrh	r3, [r4, #62]	; 0x3e
 8001a7e:	3b01      	subs	r3, #1
 8001a80:	b29b      	uxth	r3, r3
 8001a82:	87e3      	strh	r3, [r4, #62]	; 0x3e
 8001a84:	6823      	ldr	r3, [r4, #0]
 8001a86:	689a      	ldr	r2, [r3, #8]
 8001a88:	4232      	tst	r2, r6
 8001a8a:	d00f      	beq.n	8001aac <HAL_SPI_TransmitReceive+0x1ec>
 8001a8c:	0022      	movs	r2, r4
 8001a8e:	3208      	adds	r2, #8
 8001a90:	8fd1      	ldrh	r1, [r2, #62]	; 0x3e
 8001a92:	2900      	cmp	r1, #0
 8001a94:	d00a      	beq.n	8001aac <HAL_SPI_TransmitReceive+0x1ec>
 8001a96:	0035      	movs	r5, r6
 8001a98:	7b1b      	ldrb	r3, [r3, #12]
 8001a9a:	6c21      	ldr	r1, [r4, #64]	; 0x40
 8001a9c:	700b      	strb	r3, [r1, #0]
 8001a9e:	6c23      	ldr	r3, [r4, #64]	; 0x40
 8001aa0:	3301      	adds	r3, #1
 8001aa2:	6423      	str	r3, [r4, #64]	; 0x40
 8001aa4:	8fd3      	ldrh	r3, [r2, #62]	; 0x3e
 8001aa6:	3b01      	subs	r3, #1
 8001aa8:	b29b      	uxth	r3, r3
 8001aaa:	87d3      	strh	r3, [r2, #62]	; 0x3e
 8001aac:	f7ff f916 	bl	8000cdc <HAL_GetTick>
 8001ab0:	9b01      	ldr	r3, [sp, #4]
 8001ab2:	1ac0      	subs	r0, r0, r3
 8001ab4:	9b08      	ldr	r3, [sp, #32]
 8001ab6:	4283      	cmp	r3, r0
 8001ab8:	d8c8      	bhi.n	8001a4c <HAL_SPI_TransmitReceive+0x18c>
 8001aba:	3301      	adds	r3, #1
 8001abc:	d0c6      	beq.n	8001a4c <HAL_SPI_TransmitReceive+0x18c>
 8001abe:	e7ac      	b.n	8001a1a <HAL_SPI_TransmitReceive+0x15a>
 8001ac0:	ffffefff 	.word	0xffffefff

08001ac4 <HAL_SPI_Receive>:
 8001ac4:	b5f0      	push	{r4, r5, r6, r7, lr}
 8001ac6:	001d      	movs	r5, r3
 8001ac8:	2382      	movs	r3, #130	; 0x82
 8001aca:	0016      	movs	r6, r2
 8001acc:	6842      	ldr	r2, [r0, #4]
 8001ace:	b087      	sub	sp, #28
 8001ad0:	0004      	movs	r4, r0
 8001ad2:	000f      	movs	r7, r1
 8001ad4:	005b      	lsls	r3, r3, #1
 8001ad6:	429a      	cmp	r2, r3
 8001ad8:	d10d      	bne.n	8001af6 <HAL_SPI_Receive+0x32>
 8001ada:	6883      	ldr	r3, [r0, #8]
 8001adc:	2b00      	cmp	r3, #0
 8001ade:	d10a      	bne.n	8001af6 <HAL_SPI_Receive+0x32>
 8001ae0:	0003      	movs	r3, r0
 8001ae2:	2204      	movs	r2, #4
 8001ae4:	335d      	adds	r3, #93	; 0x5d
 8001ae6:	701a      	strb	r2, [r3, #0]
 8001ae8:	9500      	str	r5, [sp, #0]
 8001aea:	0033      	movs	r3, r6
 8001aec:	000a      	movs	r2, r1
 8001aee:	f7ff fee7 	bl	80018c0 <HAL_SPI_TransmitReceive>
 8001af2:	b007      	add	sp, #28
 8001af4:	bdf0      	pop	{r4, r5, r6, r7, pc}
 8001af6:	0023      	movs	r3, r4
 8001af8:	335c      	adds	r3, #92	; 0x5c
 8001afa:	9304      	str	r3, [sp, #16]
 8001afc:	781b      	ldrb	r3, [r3, #0]
 8001afe:	2002      	movs	r0, #2
 8001b00:	2b01      	cmp	r3, #1
 8001b02:	d0f6      	beq.n	8001af2 <HAL_SPI_Receive+0x2e>
 8001b04:	2301      	movs	r3, #1
 8001b06:	9a04      	ldr	r2, [sp, #16]
 8001b08:	7013      	strb	r3, [r2, #0]
 8001b0a:	f7ff f8e7 	bl	8000cdc <HAL_GetTick>
 8001b0e:	0023      	movs	r3, r4
 8001b10:	335d      	adds	r3, #93	; 0x5d
 8001b12:	9003      	str	r0, [sp, #12]
 8001b14:	9305      	str	r3, [sp, #20]
 8001b16:	781b      	ldrb	r3, [r3, #0]
 8001b18:	2002      	movs	r0, #2
 8001b1a:	b2db      	uxtb	r3, r3
 8001b1c:	2b01      	cmp	r3, #1
 8001b1e:	d164      	bne.n	8001bea <HAL_SPI_Receive+0x126>
 8001b20:	0018      	movs	r0, r3
 8001b22:	2f00      	cmp	r7, #0
 8001b24:	d061      	beq.n	8001bea <HAL_SPI_Receive+0x126>
 8001b26:	2e00      	cmp	r6, #0
 8001b28:	d05f      	beq.n	8001bea <HAL_SPI_Receive+0x126>
 8001b2a:	9a05      	ldr	r2, [sp, #20]
 8001b2c:	3303      	adds	r3, #3
 8001b2e:	7013      	strb	r3, [r2, #0]
 8001b30:	2300      	movs	r3, #0
 8001b32:	1da2      	adds	r2, r4, #6
 8001b34:	6623      	str	r3, [r4, #96]	; 0x60
 8001b36:	6427      	str	r7, [r4, #64]	; 0x40
 8001b38:	3202      	adds	r2, #2
 8001b3a:	8796      	strh	r6, [r2, #60]	; 0x3c
 8001b3c:	87d6      	strh	r6, [r2, #62]	; 0x3e
 8001b3e:	22e0      	movs	r2, #224	; 0xe0
 8001b40:	68e1      	ldr	r1, [r4, #12]
 8001b42:	63a3      	str	r3, [r4, #56]	; 0x38
 8001b44:	87a3      	strh	r3, [r4, #60]	; 0x3c
 8001b46:	87e3      	strh	r3, [r4, #62]	; 0x3e
 8001b48:	64e3      	str	r3, [r4, #76]	; 0x4c
 8001b4a:	6523      	str	r3, [r4, #80]	; 0x50
 8001b4c:	00d2      	lsls	r2, r2, #3
 8001b4e:	6823      	ldr	r3, [r4, #0]
 8001b50:	4291      	cmp	r1, r2
 8001b52:	d92d      	bls.n	8001bb0 <HAL_SPI_Receive+0xec>
 8001b54:	685a      	ldr	r2, [r3, #4]
 8001b56:	4837      	ldr	r0, [pc, #220]	; (8001c34 <HAL_SPI_Receive+0x170>)
 8001b58:	4002      	ands	r2, r0
 8001b5a:	605a      	str	r2, [r3, #4]
 8001b5c:	2280      	movs	r2, #128	; 0x80
 8001b5e:	68a0      	ldr	r0, [r4, #8]
 8001b60:	0212      	lsls	r2, r2, #8
 8001b62:	4290      	cmp	r0, r2
 8001b64:	d107      	bne.n	8001b76 <HAL_SPI_Receive+0xb2>
 8001b66:	2040      	movs	r0, #64	; 0x40
 8001b68:	681a      	ldr	r2, [r3, #0]
 8001b6a:	4382      	bics	r2, r0
 8001b6c:	601a      	str	r2, [r3, #0]
 8001b6e:	681a      	ldr	r2, [r3, #0]
 8001b70:	4831      	ldr	r0, [pc, #196]	; (8001c38 <HAL_SPI_Receive+0x174>)
 8001b72:	4002      	ands	r2, r0
 8001b74:	601a      	str	r2, [r3, #0]
 8001b76:	2240      	movs	r2, #64	; 0x40
 8001b78:	6818      	ldr	r0, [r3, #0]
 8001b7a:	4210      	tst	r0, r2
 8001b7c:	d102      	bne.n	8001b84 <HAL_SPI_Receive+0xc0>
 8001b7e:	6818      	ldr	r0, [r3, #0]
 8001b80:	4302      	orrs	r2, r0
 8001b82:	601a      	str	r2, [r3, #0]
 8001b84:	23e0      	movs	r3, #224	; 0xe0
 8001b86:	0026      	movs	r6, r4
 8001b88:	00db      	lsls	r3, r3, #3
 8001b8a:	3608      	adds	r6, #8
 8001b8c:	2701      	movs	r7, #1
 8001b8e:	4299      	cmp	r1, r3
 8001b90:	d83f      	bhi.n	8001c12 <HAL_SPI_Receive+0x14e>
 8001b92:	8ff3      	ldrh	r3, [r6, #62]	; 0x3e
 8001b94:	2b00      	cmp	r3, #0
 8001b96:	d110      	bne.n	8001bba <HAL_SPI_Receive+0xf6>
 8001b98:	9a03      	ldr	r2, [sp, #12]
 8001b9a:	0029      	movs	r1, r5
 8001b9c:	0020      	movs	r0, r4
 8001b9e:	f7ff fcfb 	bl	8001598 <SPI_EndRxTransaction>
 8001ba2:	2800      	cmp	r0, #0
 8001ba4:	d142      	bne.n	8001c2c <HAL_SPI_Receive+0x168>
 8001ba6:	6e20      	ldr	r0, [r4, #96]	; 0x60
 8001ba8:	1e43      	subs	r3, r0, #1
 8001baa:	4198      	sbcs	r0, r3
 8001bac:	b2c0      	uxtb	r0, r0
 8001bae:	e01c      	b.n	8001bea <HAL_SPI_Receive+0x126>
 8001bb0:	2280      	movs	r2, #128	; 0x80
 8001bb2:	6858      	ldr	r0, [r3, #4]
 8001bb4:	0152      	lsls	r2, r2, #5
 8001bb6:	4302      	orrs	r2, r0
 8001bb8:	e7cf      	b.n	8001b5a <HAL_SPI_Receive+0x96>
 8001bba:	6823      	ldr	r3, [r4, #0]
 8001bbc:	689a      	ldr	r2, [r3, #8]
 8001bbe:	423a      	tst	r2, r7
 8001bc0:	d00a      	beq.n	8001bd8 <HAL_SPI_Receive+0x114>
 8001bc2:	7b1b      	ldrb	r3, [r3, #12]
 8001bc4:	6c22      	ldr	r2, [r4, #64]	; 0x40
 8001bc6:	7013      	strb	r3, [r2, #0]
 8001bc8:	6c23      	ldr	r3, [r4, #64]	; 0x40
 8001bca:	3301      	adds	r3, #1
 8001bcc:	6423      	str	r3, [r4, #64]	; 0x40
 8001bce:	8ff3      	ldrh	r3, [r6, #62]	; 0x3e
 8001bd0:	3b01      	subs	r3, #1
 8001bd2:	b29b      	uxth	r3, r3
 8001bd4:	87f3      	strh	r3, [r6, #62]	; 0x3e
 8001bd6:	e7dc      	b.n	8001b92 <HAL_SPI_Receive+0xce>
 8001bd8:	f7ff f880 	bl	8000cdc <HAL_GetTick>
 8001bdc:	9b03      	ldr	r3, [sp, #12]
 8001bde:	1ac0      	subs	r0, r0, r3
 8001be0:	42a8      	cmp	r0, r5
 8001be2:	d3d6      	bcc.n	8001b92 <HAL_SPI_Receive+0xce>
 8001be4:	1c6b      	adds	r3, r5, #1
 8001be6:	d0d4      	beq.n	8001b92 <HAL_SPI_Receive+0xce>
 8001be8:	2003      	movs	r0, #3
 8001bea:	2301      	movs	r3, #1
 8001bec:	9a05      	ldr	r2, [sp, #20]
 8001bee:	7013      	strb	r3, [r2, #0]
 8001bf0:	2300      	movs	r3, #0
 8001bf2:	9a04      	ldr	r2, [sp, #16]
 8001bf4:	7013      	strb	r3, [r2, #0]
 8001bf6:	e77c      	b.n	8001af2 <HAL_SPI_Receive+0x2e>
 8001bf8:	6823      	ldr	r3, [r4, #0]
 8001bfa:	689a      	ldr	r2, [r3, #8]
 8001bfc:	423a      	tst	r2, r7
 8001bfe:	d00c      	beq.n	8001c1a <HAL_SPI_Receive+0x156>
 8001c00:	68da      	ldr	r2, [r3, #12]
 8001c02:	6c23      	ldr	r3, [r4, #64]	; 0x40
 8001c04:	801a      	strh	r2, [r3, #0]
 8001c06:	3302      	adds	r3, #2
 8001c08:	6423      	str	r3, [r4, #64]	; 0x40
 8001c0a:	8ff3      	ldrh	r3, [r6, #62]	; 0x3e
 8001c0c:	3b01      	subs	r3, #1
 8001c0e:	b29b      	uxth	r3, r3
 8001c10:	87f3      	strh	r3, [r6, #62]	; 0x3e
 8001c12:	8ff3      	ldrh	r3, [r6, #62]	; 0x3e
 8001c14:	2b00      	cmp	r3, #0
 8001c16:	d1ef      	bne.n	8001bf8 <HAL_SPI_Receive+0x134>
 8001c18:	e7be      	b.n	8001b98 <HAL_SPI_Receive+0xd4>
 8001c1a:	f7ff f85f 	bl	8000cdc <HAL_GetTick>
 8001c1e:	9b03      	ldr	r3, [sp, #12]
 8001c20:	1ac0      	subs	r0, r0, r3
 8001c22:	42a8      	cmp	r0, r5
 8001c24:	d3f5      	bcc.n	8001c12 <HAL_SPI_Receive+0x14e>
 8001c26:	1c6b      	adds	r3, r5, #1
 8001c28:	d0f3      	beq.n	8001c12 <HAL_SPI_Receive+0x14e>
 8001c2a:	e7dd      	b.n	8001be8 <HAL_SPI_Receive+0x124>
 8001c2c:	2320      	movs	r3, #32
 8001c2e:	6623      	str	r3, [r4, #96]	; 0x60
 8001c30:	e7b9      	b.n	8001ba6 <HAL_SPI_Receive+0xe2>
 8001c32:	46c0      	nop			; (mov r8, r8)
 8001c34:	ffffefff 	.word	0xffffefff
 8001c38:	ffffbfff 	.word	0xffffbfff

08001c3c <__libc_init_array>:
 8001c3c:	b570      	push	{r4, r5, r6, lr}
 8001c3e:	2600      	movs	r6, #0
 8001c40:	4d0c      	ldr	r5, [pc, #48]	; (8001c74 <__libc_init_array+0x38>)
 8001c42:	4c0d      	ldr	r4, [pc, #52]	; (8001c78 <__libc_init_array+0x3c>)
 8001c44:	1b64      	subs	r4, r4, r5
 8001c46:	10a4      	asrs	r4, r4, #2
 8001c48:	42a6      	cmp	r6, r4
 8001c4a:	d109      	bne.n	8001c60 <__libc_init_array+0x24>
 8001c4c:	2600      	movs	r6, #0
 8001c4e:	f000 f82b 	bl	8001ca8 <_init>
 8001c52:	4d0a      	ldr	r5, [pc, #40]	; (8001c7c <__libc_init_array+0x40>)
 8001c54:	4c0a      	ldr	r4, [pc, #40]	; (8001c80 <__libc_init_array+0x44>)
 8001c56:	1b64      	subs	r4, r4, r5
 8001c58:	10a4      	asrs	r4, r4, #2
 8001c5a:	42a6      	cmp	r6, r4
 8001c5c:	d105      	bne.n	8001c6a <__libc_init_array+0x2e>
 8001c5e:	bd70      	pop	{r4, r5, r6, pc}
 8001c60:	00b3      	lsls	r3, r6, #2
 8001c62:	58eb      	ldr	r3, [r5, r3]
 8001c64:	4798      	blx	r3
 8001c66:	3601      	adds	r6, #1
 8001c68:	e7ee      	b.n	8001c48 <__libc_init_array+0xc>
 8001c6a:	00b3      	lsls	r3, r6, #2
 8001c6c:	58eb      	ldr	r3, [r5, r3]
 8001c6e:	4798      	blx	r3
 8001c70:	3601      	adds	r6, #1
 8001c72:	e7f2      	b.n	8001c5a <__libc_init_array+0x1e>
 8001c74:	08001d10 	.word	0x08001d10
 8001c78:	08001d10 	.word	0x08001d10
 8001c7c:	08001d10 	.word	0x08001d10
 8001c80:	08001d14 	.word	0x08001d14

08001c84 <memcpy>:
 8001c84:	2300      	movs	r3, #0
 8001c86:	b510      	push	{r4, lr}
 8001c88:	429a      	cmp	r2, r3
 8001c8a:	d100      	bne.n	8001c8e <memcpy+0xa>
 8001c8c:	bd10      	pop	{r4, pc}
 8001c8e:	5ccc      	ldrb	r4, [r1, r3]
 8001c90:	54c4      	strb	r4, [r0, r3]
 8001c92:	3301      	adds	r3, #1
 8001c94:	e7f8      	b.n	8001c88 <memcpy+0x4>

08001c96 <memset>:
 8001c96:	0003      	movs	r3, r0
 8001c98:	1812      	adds	r2, r2, r0
 8001c9a:	4293      	cmp	r3, r2
 8001c9c:	d100      	bne.n	8001ca0 <memset+0xa>
 8001c9e:	4770      	bx	lr
 8001ca0:	7019      	strb	r1, [r3, #0]
 8001ca2:	3301      	adds	r3, #1
 8001ca4:	e7f9      	b.n	8001c9a <memset+0x4>
	...

08001ca8 <_init>:
 8001ca8:	b5f8      	push	{r3, r4, r5, r6, r7, lr}
 8001caa:	46c0      	nop			; (mov r8, r8)
 8001cac:	bcf8      	pop	{r3, r4, r5, r6, r7}
 8001cae:	bc08      	pop	{r3}
 8001cb0:	469e      	mov	lr, r3
 8001cb2:	4770      	bx	lr

08001cb4 <_fini>:
 8001cb4:	b5f8      	push	{r3, r4, r5, r6, r7, lr}
 8001cb6:	46c0      	nop			; (mov r8, r8)
 8001cb8:	bcf8      	pop	{r3, r4, r5, r6, r7}
 8001cba:	bc08      	pop	{r3}
 8001cbc:	469e      	mov	lr, r3
 8001cbe:	4770      	bx	lr
